
./ta/bin/hello:     file format elf32-littleriscv


Disassembly of section .cuda_constant:

00000000 <_start>:
       0:	00000197          	auipc	gp,0x0
       4:	00018193          	mv	gp,gp
       8:	00003517          	auipc	a0,0x3
       c:	58050513          	addi	a0,a0,1408 # 3588 <_edata>
      10:	00004617          	auipc	a2,0x4
      14:	44a60613          	addi	a2,a2,1098 # 445a <_end>
      18:	40a60633          	sub	a2,a2,a0
      1c:	00000593          	li	a1,0
      20:	0d4000ef          	jal	ra,f4 <memset>
      24:	00002517          	auipc	a0,0x2
      28:	2e050513          	addi	a0,a0,736 # 2304 <atexit>
      2c:	00050863          	beqz	a0,3c <_start+0x3c>
      30:	00001517          	auipc	a0,0x1
      34:	89450513          	addi	a0,a0,-1900 # 8c4 <__libc_fini_array>
      38:	2cc020ef          	jal	ra,2304 <atexit>
      3c:	1c8000ef          	jal	ra,204 <__libc_init_array>
      40:	00012503          	lw	a0,0(sp)
      44:	00410593          	addi	a1,sp,4
      48:	00000613          	li	a2,0
      4c:	074000ef          	jal	ra,c0 <main>
      50:	1800006f          	j	1d0 <exit>

00000054 <__do_global_dtors_aux>:
      54:	ff010113          	addi	sp,sp,-16
      58:	00812423          	sw	s0,8(sp)
      5c:	00003437          	lui	s0,0x3
      60:	5a444783          	lbu	a5,1444(s0) # 35a4 <completed.1>
      64:	00112623          	sw	ra,12(sp)
      68:	02079263          	bnez	a5,8c <__do_global_dtors_aux+0x38>
      6c:	00000793          	li	a5,0
      70:	00078a63          	beqz	a5,84 <__do_global_dtors_aux+0x30>
      74:	00004537          	lui	a0,0x4
      78:	e3050513          	addi	a0,a0,-464 # 3e30 <__EH_FRAME_BEGIN__>
      7c:	00000097          	auipc	ra,0x0
      80:	000000e7          	jalr	zero # 0 <_start>
      84:	00100793          	li	a5,1
      88:	5af40223          	sb	a5,1444(s0)
      8c:	00c12083          	lw	ra,12(sp)
      90:	00812403          	lw	s0,8(sp)
      94:	01010113          	addi	sp,sp,16
      98:	00008067          	ret

0000009c <frame_dummy>:
      9c:	00000793          	li	a5,0
      a0:	00078e63          	beqz	a5,bc <frame_dummy+0x20>
      a4:	000035b7          	lui	a1,0x3
      a8:	00004537          	lui	a0,0x4
      ac:	5a858593          	addi	a1,a1,1448 # 35a8 <object.0>
      b0:	e3050513          	addi	a0,a0,-464 # 3e30 <__EH_FRAME_BEGIN__>
      b4:	00000317          	auipc	t1,0x0
      b8:	00000067          	jr	zero # 0 <_start>
      bc:	00008067          	ret

000000c0 <main>:
      c0:	ff010113          	addi	sp,sp,-16
      c4:	00112623          	sw	ra,12(sp)
      c8:	00812423          	sw	s0,8(sp)
      cc:	01010413          	addi	s0,sp,16
      d0:	000037b7          	lui	a5,0x3
      d4:	57878513          	addi	a0,a5,1400 # 3578 <__errno+0xc>
      d8:	288000ef          	jal	ra,360 <puts>
      dc:	00000793          	li	a5,0
      e0:	00078513          	mv	a0,a5
      e4:	00c12083          	lw	ra,12(sp)
      e8:	00812403          	lw	s0,8(sp)
      ec:	01010113          	addi	sp,sp,16
      f0:	00008067          	ret

000000f4 <memset>:
      f4:	00f00313          	li	t1,15
      f8:	00050713          	mv	a4,a0
      fc:	02c37e63          	bgeu	t1,a2,138 <memset+0x44>
     100:	00f77793          	andi	a5,a4,15
     104:	0a079063          	bnez	a5,1a4 <memset+0xb0>
     108:	08059263          	bnez	a1,18c <memset+0x98>
     10c:	ff067693          	andi	a3,a2,-16
     110:	00f67613          	andi	a2,a2,15
     114:	00e686b3          	add	a3,a3,a4
     118:	00b72023          	sw	a1,0(a4)
     11c:	00b72223          	sw	a1,4(a4)
     120:	00b72423          	sw	a1,8(a4)
     124:	00b72623          	sw	a1,12(a4)
     128:	01070713          	addi	a4,a4,16
     12c:	fed766e3          	bltu	a4,a3,118 <memset+0x24>
     130:	00061463          	bnez	a2,138 <memset+0x44>
     134:	00008067          	ret
     138:	40c306b3          	sub	a3,t1,a2
     13c:	00269693          	slli	a3,a3,0x2
     140:	00000297          	auipc	t0,0x0
     144:	005686b3          	add	a3,a3,t0
     148:	00c68067          	jr	12(a3)
     14c:	00b70723          	sb	a1,14(a4)
     150:	00b706a3          	sb	a1,13(a4)
     154:	00b70623          	sb	a1,12(a4)
     158:	00b705a3          	sb	a1,11(a4)
     15c:	00b70523          	sb	a1,10(a4)
     160:	00b704a3          	sb	a1,9(a4)
     164:	00b70423          	sb	a1,8(a4)
     168:	00b703a3          	sb	a1,7(a4)
     16c:	00b70323          	sb	a1,6(a4)
     170:	00b702a3          	sb	a1,5(a4)
     174:	00b70223          	sb	a1,4(a4)
     178:	00b701a3          	sb	a1,3(a4)
     17c:	00b70123          	sb	a1,2(a4)
     180:	00b700a3          	sb	a1,1(a4)
     184:	00b70023          	sb	a1,0(a4)
     188:	00008067          	ret
     18c:	0ff5f593          	zext.b	a1,a1
     190:	00859693          	slli	a3,a1,0x8
     194:	00d5e5b3          	or	a1,a1,a3
     198:	01059693          	slli	a3,a1,0x10
     19c:	00d5e5b3          	or	a1,a1,a3
     1a0:	f6dff06f          	j	10c <memset+0x18>
     1a4:	00279693          	slli	a3,a5,0x2
     1a8:	00000297          	auipc	t0,0x0
     1ac:	005686b3          	add	a3,a3,t0
     1b0:	00008293          	mv	t0,ra
     1b4:	fa0680e7          	jalr	-96(a3)
     1b8:	00028093          	mv	ra,t0
     1bc:	ff078793          	addi	a5,a5,-16
     1c0:	40f70733          	sub	a4,a4,a5
     1c4:	00f60633          	add	a2,a2,a5
     1c8:	f6c378e3          	bgeu	t1,a2,138 <memset+0x44>
     1cc:	f3dff06f          	j	108 <memset+0x14>

000001d0 <exit>:
     1d0:	ff010113          	addi	sp,sp,-16
     1d4:	00000593          	li	a1,0
     1d8:	00812423          	sw	s0,8(sp)
     1dc:	00112623          	sw	ra,12(sp)
     1e0:	00050413          	mv	s0,a0
     1e4:	230000ef          	jal	ra,414 <__call_exitprocs>
     1e8:	000037b7          	lui	a5,0x3
     1ec:	5847a503          	lw	a0,1412(a5) # 3584 <_global_impure_ptr>
     1f0:	03c52783          	lw	a5,60(a0)
     1f4:	00078463          	beqz	a5,1fc <exit+0x2c>
     1f8:	000780e7          	jalr	a5
     1fc:	00040513          	mv	a0,s0
     200:	0ac030ef          	jal	ra,32ac <_exit>

00000204 <__libc_init_array>:
     204:	ff010113          	addi	sp,sp,-16
     208:	00812423          	sw	s0,8(sp)
     20c:	01212023          	sw	s2,0(sp)
     210:	00000793          	li	a5,0
     214:	00000713          	li	a4,0
     218:	00112623          	sw	ra,12(sp)
     21c:	00912223          	sw	s1,4(sp)
     220:	40e78933          	sub	s2,a5,a4
     224:	02e78263          	beq	a5,a4,248 <__libc_init_array+0x44>
     228:	40295913          	srai	s2,s2,0x2
     22c:	00000413          	li	s0,0
     230:	00000493          	li	s1,0
     234:	00042783          	lw	a5,0(s0)
     238:	00148493          	addi	s1,s1,1
     23c:	00440413          	addi	s0,s0,4
     240:	000780e7          	jalr	a5
     244:	ff24e8e3          	bltu	s1,s2,234 <__libc_init_array+0x30>
     248:	00000793          	li	a5,0
     24c:	00000713          	li	a4,0
     250:	40e78933          	sub	s2,a5,a4
     254:	40295913          	srai	s2,s2,0x2
     258:	02e78063          	beq	a5,a4,278 <__libc_init_array+0x74>
     25c:	00000413          	li	s0,0
     260:	00000493          	li	s1,0
     264:	00042783          	lw	a5,0(s0)
     268:	00148493          	addi	s1,s1,1
     26c:	00440413          	addi	s0,s0,4
     270:	000780e7          	jalr	a5
     274:	ff24e8e3          	bltu	s1,s2,264 <__libc_init_array+0x60>
     278:	00c12083          	lw	ra,12(sp)
     27c:	00812403          	lw	s0,8(sp)
     280:	00412483          	lw	s1,4(sp)
     284:	00012903          	lw	s2,0(sp)
     288:	01010113          	addi	sp,sp,16
     28c:	00008067          	ret

00000290 <_puts_r>:
     290:	fc010113          	addi	sp,sp,-64
     294:	02812c23          	sw	s0,56(sp)
     298:	00050413          	mv	s0,a0
     29c:	00058513          	mv	a0,a1
     2a0:	02912a23          	sw	s1,52(sp)
     2a4:	02112e23          	sw	ra,60(sp)
     2a8:	00058493          	mv	s1,a1
     2ac:	0c4000ef          	jal	ra,370 <strlen>
     2b0:	000037b7          	lui	a5,0x3
     2b4:	58078793          	addi	a5,a5,1408 # 3580 <__errno+0x14>
     2b8:	02f12423          	sw	a5,40(sp)
     2bc:	00100793          	li	a5,1
     2c0:	02f12623          	sw	a5,44(sp)
     2c4:	03842703          	lw	a4,56(s0)
     2c8:	02010793          	addi	a5,sp,32
     2cc:	00150693          	addi	a3,a0,1
     2d0:	00f12a23          	sw	a5,20(sp)
     2d4:	00200793          	li	a5,2
     2d8:	02912023          	sw	s1,32(sp)
     2dc:	02a12223          	sw	a0,36(sp)
     2e0:	00d12e23          	sw	a3,28(sp)
     2e4:	00f12c23          	sw	a5,24(sp)
     2e8:	00842583          	lw	a1,8(s0)
     2ec:	06070063          	beqz	a4,34c <_puts_r+0xbc>
     2f0:	00c59783          	lh	a5,12(a1)
     2f4:	01279713          	slli	a4,a5,0x12
     2f8:	02074263          	bltz	a4,31c <_puts_r+0x8c>
     2fc:	0645a703          	lw	a4,100(a1)
     300:	000026b7          	lui	a3,0x2
     304:	00d7e7b3          	or	a5,a5,a3
     308:	ffffe6b7          	lui	a3,0xffffe
     30c:	fff68693          	addi	a3,a3,-1 # ffffdfff <_end+0xffff9ba5>
     310:	00d77733          	and	a4,a4,a3
     314:	00f59623          	sh	a5,12(a1)
     318:	06e5a223          	sw	a4,100(a1)
     31c:	01410613          	addi	a2,sp,20
     320:	00040513          	mv	a0,s0
     324:	5f4000ef          	jal	ra,918 <__sfvwrite_r>
     328:	03c12083          	lw	ra,60(sp)
     32c:	03812403          	lw	s0,56(sp)
     330:	00153513          	seqz	a0,a0
     334:	40a00533          	neg	a0,a0
     338:	00b57513          	andi	a0,a0,11
     33c:	03412483          	lw	s1,52(sp)
     340:	fff50513          	addi	a0,a0,-1
     344:	04010113          	addi	sp,sp,64
     348:	00008067          	ret
     34c:	00040513          	mv	a0,s0
     350:	00b12623          	sw	a1,12(sp)
     354:	530000ef          	jal	ra,884 <__sinit>
     358:	00c12583          	lw	a1,12(sp)
     35c:	f95ff06f          	j	2f0 <_puts_r+0x60>

00000360 <puts>:
     360:	000037b7          	lui	a5,0x3
     364:	00050593          	mv	a1,a0
     368:	5987a503          	lw	a0,1432(a5) # 3598 <_impure_ptr>
     36c:	f25ff06f          	j	290 <_puts_r>

00000370 <strlen>:
     370:	00357793          	andi	a5,a0,3
     374:	00050713          	mv	a4,a0
     378:	04079c63          	bnez	a5,3d0 <strlen+0x60>
     37c:	7f7f86b7          	lui	a3,0x7f7f8
     380:	f7f68693          	addi	a3,a3,-129 # 7f7f7f7f <_end+0x7f7f3b25>
     384:	fff00593          	li	a1,-1
     388:	00072603          	lw	a2,0(a4)
     38c:	00470713          	addi	a4,a4,4
     390:	00d677b3          	and	a5,a2,a3
     394:	00d787b3          	add	a5,a5,a3
     398:	00c7e7b3          	or	a5,a5,a2
     39c:	00d7e7b3          	or	a5,a5,a3
     3a0:	feb784e3          	beq	a5,a1,388 <strlen+0x18>
     3a4:	ffc74683          	lbu	a3,-4(a4)
     3a8:	40a707b3          	sub	a5,a4,a0
     3ac:	04068463          	beqz	a3,3f4 <strlen+0x84>
     3b0:	ffd74683          	lbu	a3,-3(a4)
     3b4:	02068c63          	beqz	a3,3ec <strlen+0x7c>
     3b8:	ffe74503          	lbu	a0,-2(a4)
     3bc:	00a03533          	snez	a0,a0
     3c0:	00f50533          	add	a0,a0,a5
     3c4:	ffe50513          	addi	a0,a0,-2
     3c8:	00008067          	ret
     3cc:	fa0688e3          	beqz	a3,37c <strlen+0xc>
     3d0:	00074783          	lbu	a5,0(a4)
     3d4:	00170713          	addi	a4,a4,1
     3d8:	00377693          	andi	a3,a4,3
     3dc:	fe0798e3          	bnez	a5,3cc <strlen+0x5c>
     3e0:	40a70733          	sub	a4,a4,a0
     3e4:	fff70513          	addi	a0,a4,-1
     3e8:	00008067          	ret
     3ec:	ffd78513          	addi	a0,a5,-3
     3f0:	00008067          	ret
     3f4:	ffc78513          	addi	a0,a5,-4
     3f8:	00008067          	ret

000003fc <register_fini>:
     3fc:	00000793          	li	a5,0
     400:	00078863          	beqz	a5,410 <register_fini+0x14>
     404:	00001537          	lui	a0,0x1
     408:	8c450513          	addi	a0,a0,-1852 # 8c4 <__libc_fini_array>
     40c:	6f90106f          	j	2304 <atexit>
     410:	00008067          	ret

00000414 <__call_exitprocs>:
     414:	fd010113          	addi	sp,sp,-48
     418:	000037b7          	lui	a5,0x3
     41c:	01412c23          	sw	s4,24(sp)
     420:	5847aa03          	lw	s4,1412(a5) # 3584 <_global_impure_ptr>
     424:	03212023          	sw	s2,32(sp)
     428:	02112623          	sw	ra,44(sp)
     42c:	148a2903          	lw	s2,328(s4)
     430:	02812423          	sw	s0,40(sp)
     434:	02912223          	sw	s1,36(sp)
     438:	01312e23          	sw	s3,28(sp)
     43c:	01512a23          	sw	s5,20(sp)
     440:	01612823          	sw	s6,16(sp)
     444:	01712623          	sw	s7,12(sp)
     448:	01812423          	sw	s8,8(sp)
     44c:	04090063          	beqz	s2,48c <__call_exitprocs+0x78>
     450:	00050b13          	mv	s6,a0
     454:	00058b93          	mv	s7,a1
     458:	00100a93          	li	s5,1
     45c:	fff00993          	li	s3,-1
     460:	00492483          	lw	s1,4(s2)
     464:	fff48413          	addi	s0,s1,-1
     468:	02044263          	bltz	s0,48c <__call_exitprocs+0x78>
     46c:	00249493          	slli	s1,s1,0x2
     470:	009904b3          	add	s1,s2,s1
     474:	040b8463          	beqz	s7,4bc <__call_exitprocs+0xa8>
     478:	1044a783          	lw	a5,260(s1)
     47c:	05778063          	beq	a5,s7,4bc <__call_exitprocs+0xa8>
     480:	fff40413          	addi	s0,s0,-1
     484:	ffc48493          	addi	s1,s1,-4
     488:	ff3416e3          	bne	s0,s3,474 <__call_exitprocs+0x60>
     48c:	02c12083          	lw	ra,44(sp)
     490:	02812403          	lw	s0,40(sp)
     494:	02412483          	lw	s1,36(sp)
     498:	02012903          	lw	s2,32(sp)
     49c:	01c12983          	lw	s3,28(sp)
     4a0:	01812a03          	lw	s4,24(sp)
     4a4:	01412a83          	lw	s5,20(sp)
     4a8:	01012b03          	lw	s6,16(sp)
     4ac:	00c12b83          	lw	s7,12(sp)
     4b0:	00812c03          	lw	s8,8(sp)
     4b4:	03010113          	addi	sp,sp,48
     4b8:	00008067          	ret
     4bc:	00492783          	lw	a5,4(s2)
     4c0:	0044a683          	lw	a3,4(s1)
     4c4:	fff78793          	addi	a5,a5,-1
     4c8:	04878e63          	beq	a5,s0,524 <__call_exitprocs+0x110>
     4cc:	0004a223          	sw	zero,4(s1)
     4d0:	fa0688e3          	beqz	a3,480 <__call_exitprocs+0x6c>
     4d4:	18892783          	lw	a5,392(s2)
     4d8:	008a9733          	sll	a4,s5,s0
     4dc:	00492c03          	lw	s8,4(s2)
     4e0:	00f777b3          	and	a5,a4,a5
     4e4:	02079263          	bnez	a5,508 <__call_exitprocs+0xf4>
     4e8:	000680e7          	jalr	a3
     4ec:	00492703          	lw	a4,4(s2)
     4f0:	148a2783          	lw	a5,328(s4)
     4f4:	01871463          	bne	a4,s8,4fc <__call_exitprocs+0xe8>
     4f8:	f92784e3          	beq	a5,s2,480 <__call_exitprocs+0x6c>
     4fc:	f80788e3          	beqz	a5,48c <__call_exitprocs+0x78>
     500:	00078913          	mv	s2,a5
     504:	f5dff06f          	j	460 <__call_exitprocs+0x4c>
     508:	18c92783          	lw	a5,396(s2)
     50c:	0844a583          	lw	a1,132(s1)
     510:	00f77733          	and	a4,a4,a5
     514:	00071c63          	bnez	a4,52c <__call_exitprocs+0x118>
     518:	000b0513          	mv	a0,s6
     51c:	000680e7          	jalr	a3
     520:	fcdff06f          	j	4ec <__call_exitprocs+0xd8>
     524:	00892223          	sw	s0,4(s2)
     528:	fa9ff06f          	j	4d0 <__call_exitprocs+0xbc>
     52c:	00058513          	mv	a0,a1
     530:	000680e7          	jalr	a3
     534:	fb9ff06f          	j	4ec <__call_exitprocs+0xd8>

00000538 <__fp_lock>:
     538:	00000513          	li	a0,0
     53c:	00008067          	ret

00000540 <_cleanup_r>:
     540:	000025b7          	lui	a1,0x2
     544:	37858593          	addi	a1,a1,888 # 2378 <_fclose_r>
     548:	1110006f          	j	e58 <_fwalk_reent>

0000054c <__fp_unlock>:
     54c:	00000513          	li	a0,0
     550:	00008067          	ret

00000554 <__sinit.part.0>:
     554:	fe010113          	addi	sp,sp,-32
     558:	00112e23          	sw	ra,28(sp)
     55c:	00812c23          	sw	s0,24(sp)
     560:	00912a23          	sw	s1,20(sp)
     564:	01212823          	sw	s2,16(sp)
     568:	01312623          	sw	s3,12(sp)
     56c:	01412423          	sw	s4,8(sp)
     570:	01512223          	sw	s5,4(sp)
     574:	01612023          	sw	s6,0(sp)
     578:	00452403          	lw	s0,4(a0)
     57c:	54000793          	li	a5,1344
     580:	02f52e23          	sw	a5,60(a0)
     584:	2ec50713          	addi	a4,a0,748
     588:	00300793          	li	a5,3
     58c:	2ee52423          	sw	a4,744(a0)
     590:	2ef52223          	sw	a5,740(a0)
     594:	2e052023          	sw	zero,736(a0)
     598:	00400793          	li	a5,4
     59c:	00050913          	mv	s2,a0
     5a0:	00f42623          	sw	a5,12(s0)
     5a4:	00800613          	li	a2,8
     5a8:	00000593          	li	a1,0
     5ac:	00042023          	sw	zero,0(s0)
     5b0:	00042223          	sw	zero,4(s0)
     5b4:	00042423          	sw	zero,8(s0)
     5b8:	06042223          	sw	zero,100(s0)
     5bc:	00042823          	sw	zero,16(s0)
     5c0:	00042a23          	sw	zero,20(s0)
     5c4:	00042c23          	sw	zero,24(s0)
     5c8:	05c40513          	addi	a0,s0,92
     5cc:	b29ff0ef          	jal	ra,f4 <memset>
     5d0:	00002b37          	lui	s6,0x2
     5d4:	00892483          	lw	s1,8(s2)
     5d8:	00002ab7          	lui	s5,0x2
     5dc:	00002a37          	lui	s4,0x2
     5e0:	000029b7          	lui	s3,0x2
     5e4:	fe8b0b13          	addi	s6,s6,-24 # 1fe8 <__sread>
     5e8:	04ca8a93          	addi	s5,s5,76 # 204c <__swrite>
     5ec:	0d4a0a13          	addi	s4,s4,212 # 20d4 <__sseek>
     5f0:	14c98993          	addi	s3,s3,332 # 214c <__sclose>
     5f4:	000107b7          	lui	a5,0x10
     5f8:	03642023          	sw	s6,32(s0)
     5fc:	03542223          	sw	s5,36(s0)
     600:	03442423          	sw	s4,40(s0)
     604:	03342623          	sw	s3,44(s0)
     608:	00842e23          	sw	s0,28(s0)
     60c:	00978793          	addi	a5,a5,9 # 10009 <_end+0xbbaf>
     610:	00f4a623          	sw	a5,12(s1)
     614:	00800613          	li	a2,8
     618:	00000593          	li	a1,0
     61c:	0004a023          	sw	zero,0(s1)
     620:	0004a223          	sw	zero,4(s1)
     624:	0004a423          	sw	zero,8(s1)
     628:	0604a223          	sw	zero,100(s1)
     62c:	0004a823          	sw	zero,16(s1)
     630:	0004aa23          	sw	zero,20(s1)
     634:	0004ac23          	sw	zero,24(s1)
     638:	05c48513          	addi	a0,s1,92
     63c:	ab9ff0ef          	jal	ra,f4 <memset>
     640:	00c92403          	lw	s0,12(s2)
     644:	000207b7          	lui	a5,0x20
     648:	0364a023          	sw	s6,32(s1)
     64c:	0354a223          	sw	s5,36(s1)
     650:	0344a423          	sw	s4,40(s1)
     654:	0334a623          	sw	s3,44(s1)
     658:	0094ae23          	sw	s1,28(s1)
     65c:	01278793          	addi	a5,a5,18 # 20012 <_end+0x1bbb8>
     660:	00f42623          	sw	a5,12(s0)
     664:	00042023          	sw	zero,0(s0)
     668:	00042223          	sw	zero,4(s0)
     66c:	00042423          	sw	zero,8(s0)
     670:	06042223          	sw	zero,100(s0)
     674:	00042823          	sw	zero,16(s0)
     678:	00042a23          	sw	zero,20(s0)
     67c:	00042c23          	sw	zero,24(s0)
     680:	05c40513          	addi	a0,s0,92
     684:	00800613          	li	a2,8
     688:	00000593          	li	a1,0
     68c:	a69ff0ef          	jal	ra,f4 <memset>
     690:	01c12083          	lw	ra,28(sp)
     694:	03642023          	sw	s6,32(s0)
     698:	03542223          	sw	s5,36(s0)
     69c:	03442423          	sw	s4,40(s0)
     6a0:	03342623          	sw	s3,44(s0)
     6a4:	00842e23          	sw	s0,28(s0)
     6a8:	01812403          	lw	s0,24(sp)
     6ac:	00100793          	li	a5,1
     6b0:	02f92c23          	sw	a5,56(s2)
     6b4:	01412483          	lw	s1,20(sp)
     6b8:	01012903          	lw	s2,16(sp)
     6bc:	00c12983          	lw	s3,12(sp)
     6c0:	00812a03          	lw	s4,8(sp)
     6c4:	00412a83          	lw	s5,4(sp)
     6c8:	00012b03          	lw	s6,0(sp)
     6cc:	02010113          	addi	sp,sp,32
     6d0:	00008067          	ret

000006d4 <__sfmoreglue>:
     6d4:	ff010113          	addi	sp,sp,-16
     6d8:	00912223          	sw	s1,4(sp)
     6dc:	06800793          	li	a5,104
     6e0:	fff58493          	addi	s1,a1,-1
     6e4:	02f484b3          	mul	s1,s1,a5
     6e8:	01212023          	sw	s2,0(sp)
     6ec:	00058913          	mv	s2,a1
     6f0:	00812423          	sw	s0,8(sp)
     6f4:	00112623          	sw	ra,12(sp)
     6f8:	07448593          	addi	a1,s1,116
     6fc:	011000ef          	jal	ra,f0c <_malloc_r>
     700:	00050413          	mv	s0,a0
     704:	02050063          	beqz	a0,724 <__sfmoreglue+0x50>
     708:	00c50513          	addi	a0,a0,12
     70c:	00042023          	sw	zero,0(s0)
     710:	01242223          	sw	s2,4(s0)
     714:	00a42423          	sw	a0,8(s0)
     718:	06848613          	addi	a2,s1,104
     71c:	00000593          	li	a1,0
     720:	9d5ff0ef          	jal	ra,f4 <memset>
     724:	00c12083          	lw	ra,12(sp)
     728:	00040513          	mv	a0,s0
     72c:	00812403          	lw	s0,8(sp)
     730:	00412483          	lw	s1,4(sp)
     734:	00012903          	lw	s2,0(sp)
     738:	01010113          	addi	sp,sp,16
     73c:	00008067          	ret

00000740 <__sfp>:
     740:	fe010113          	addi	sp,sp,-32
     744:	000037b7          	lui	a5,0x3
     748:	01212823          	sw	s2,16(sp)
     74c:	5847a903          	lw	s2,1412(a5) # 3584 <_global_impure_ptr>
     750:	01312623          	sw	s3,12(sp)
     754:	00112e23          	sw	ra,28(sp)
     758:	03892783          	lw	a5,56(s2)
     75c:	00812c23          	sw	s0,24(sp)
     760:	00912a23          	sw	s1,20(sp)
     764:	00050993          	mv	s3,a0
     768:	0a078663          	beqz	a5,814 <__sfp+0xd4>
     76c:	2e090913          	addi	s2,s2,736
     770:	fff00493          	li	s1,-1
     774:	00492783          	lw	a5,4(s2)
     778:	00892403          	lw	s0,8(s2)
     77c:	fff78793          	addi	a5,a5,-1
     780:	0007d863          	bgez	a5,790 <__sfp+0x50>
     784:	0800006f          	j	804 <__sfp+0xc4>
     788:	06840413          	addi	s0,s0,104
     78c:	06978c63          	beq	a5,s1,804 <__sfp+0xc4>
     790:	00c41703          	lh	a4,12(s0)
     794:	fff78793          	addi	a5,a5,-1
     798:	fe0718e3          	bnez	a4,788 <__sfp+0x48>
     79c:	ffff07b7          	lui	a5,0xffff0
     7a0:	00178793          	addi	a5,a5,1 # ffff0001 <_end+0xfffebba7>
     7a4:	00f42623          	sw	a5,12(s0)
     7a8:	06042223          	sw	zero,100(s0)
     7ac:	00042023          	sw	zero,0(s0)
     7b0:	00042423          	sw	zero,8(s0)
     7b4:	00042223          	sw	zero,4(s0)
     7b8:	00042823          	sw	zero,16(s0)
     7bc:	00042a23          	sw	zero,20(s0)
     7c0:	00042c23          	sw	zero,24(s0)
     7c4:	00800613          	li	a2,8
     7c8:	00000593          	li	a1,0
     7cc:	05c40513          	addi	a0,s0,92
     7d0:	925ff0ef          	jal	ra,f4 <memset>
     7d4:	02042823          	sw	zero,48(s0)
     7d8:	02042a23          	sw	zero,52(s0)
     7dc:	04042223          	sw	zero,68(s0)
     7e0:	04042423          	sw	zero,72(s0)
     7e4:	01c12083          	lw	ra,28(sp)
     7e8:	00040513          	mv	a0,s0
     7ec:	01812403          	lw	s0,24(sp)
     7f0:	01412483          	lw	s1,20(sp)
     7f4:	01012903          	lw	s2,16(sp)
     7f8:	00c12983          	lw	s3,12(sp)
     7fc:	02010113          	addi	sp,sp,32
     800:	00008067          	ret
     804:	00092403          	lw	s0,0(s2)
     808:	00040c63          	beqz	s0,820 <__sfp+0xe0>
     80c:	00040913          	mv	s2,s0
     810:	f65ff06f          	j	774 <__sfp+0x34>
     814:	00090513          	mv	a0,s2
     818:	d3dff0ef          	jal	ra,554 <__sinit.part.0>
     81c:	f51ff06f          	j	76c <__sfp+0x2c>
     820:	1ac00593          	li	a1,428
     824:	00098513          	mv	a0,s3
     828:	6e4000ef          	jal	ra,f0c <_malloc_r>
     82c:	00050413          	mv	s0,a0
     830:	02050863          	beqz	a0,860 <__sfp+0x120>
     834:	00c50513          	addi	a0,a0,12
     838:	00400793          	li	a5,4
     83c:	00042023          	sw	zero,0(s0)
     840:	00f42223          	sw	a5,4(s0)
     844:	00a42423          	sw	a0,8(s0)
     848:	1a000613          	li	a2,416
     84c:	00000593          	li	a1,0
     850:	8a5ff0ef          	jal	ra,f4 <memset>
     854:	00892023          	sw	s0,0(s2)
     858:	00040913          	mv	s2,s0
     85c:	f19ff06f          	j	774 <__sfp+0x34>
     860:	00092023          	sw	zero,0(s2)
     864:	00c00793          	li	a5,12
     868:	00f9a023          	sw	a5,0(s3)
     86c:	f79ff06f          	j	7e4 <__sfp+0xa4>

00000870 <_cleanup>:
     870:	000037b7          	lui	a5,0x3
     874:	5847a503          	lw	a0,1412(a5) # 3584 <_global_impure_ptr>
     878:	000025b7          	lui	a1,0x2
     87c:	37858593          	addi	a1,a1,888 # 2378 <_fclose_r>
     880:	5d80006f          	j	e58 <_fwalk_reent>

00000884 <__sinit>:
     884:	03852783          	lw	a5,56(a0)
     888:	00078463          	beqz	a5,890 <__sinit+0xc>
     88c:	00008067          	ret
     890:	cc5ff06f          	j	554 <__sinit.part.0>

00000894 <__sfp_lock_acquire>:
     894:	00008067          	ret

00000898 <__sfp_lock_release>:
     898:	00008067          	ret

0000089c <__sinit_lock_acquire>:
     89c:	00008067          	ret

000008a0 <__sinit_lock_release>:
     8a0:	00008067          	ret

000008a4 <__fp_lock_all>:
     8a4:	000037b7          	lui	a5,0x3
     8a8:	5987a503          	lw	a0,1432(a5) # 3598 <_impure_ptr>
     8ac:	53800593          	li	a1,1336
     8b0:	5040006f          	j	db4 <_fwalk>

000008b4 <__fp_unlock_all>:
     8b4:	000037b7          	lui	a5,0x3
     8b8:	5987a503          	lw	a0,1432(a5) # 3598 <_impure_ptr>
     8bc:	54c00593          	li	a1,1356
     8c0:	4f40006f          	j	db4 <_fwalk>

000008c4 <__libc_fini_array>:
     8c4:	ff010113          	addi	sp,sp,-16
     8c8:	00812423          	sw	s0,8(sp)
     8cc:	00000793          	li	a5,0
     8d0:	00000413          	li	s0,0
     8d4:	40f40433          	sub	s0,s0,a5
     8d8:	00912223          	sw	s1,4(sp)
     8dc:	00112623          	sw	ra,12(sp)
     8e0:	40245493          	srai	s1,s0,0x2
     8e4:	02048063          	beqz	s1,904 <__libc_fini_array+0x40>
     8e8:	ffc40413          	addi	s0,s0,-4
     8ec:	00f40433          	add	s0,s0,a5
     8f0:	00042783          	lw	a5,0(s0)
     8f4:	fff48493          	addi	s1,s1,-1
     8f8:	ffc40413          	addi	s0,s0,-4
     8fc:	000780e7          	jalr	a5
     900:	fe0498e3          	bnez	s1,8f0 <__libc_fini_array+0x2c>
     904:	00c12083          	lw	ra,12(sp)
     908:	00812403          	lw	s0,8(sp)
     90c:	00412483          	lw	s1,4(sp)
     910:	01010113          	addi	sp,sp,16
     914:	00008067          	ret

00000918 <__sfvwrite_r>:
     918:	00862783          	lw	a5,8(a2)
     91c:	30078a63          	beqz	a5,c30 <__sfvwrite_r+0x318>
     920:	00c59683          	lh	a3,12(a1)
     924:	fd010113          	addi	sp,sp,-48
     928:	02812423          	sw	s0,40(sp)
     92c:	01412c23          	sw	s4,24(sp)
     930:	01612823          	sw	s6,16(sp)
     934:	02112623          	sw	ra,44(sp)
     938:	02912223          	sw	s1,36(sp)
     93c:	03212023          	sw	s2,32(sp)
     940:	01312e23          	sw	s3,28(sp)
     944:	01512a23          	sw	s5,20(sp)
     948:	01712623          	sw	s7,12(sp)
     94c:	01812423          	sw	s8,8(sp)
     950:	01912223          	sw	s9,4(sp)
     954:	0086f793          	andi	a5,a3,8
     958:	00060b13          	mv	s6,a2
     95c:	00050a13          	mv	s4,a0
     960:	00058413          	mv	s0,a1
     964:	08078663          	beqz	a5,9f0 <__sfvwrite_r+0xd8>
     968:	0105a783          	lw	a5,16(a1)
     96c:	08078263          	beqz	a5,9f0 <__sfvwrite_r+0xd8>
     970:	0026f793          	andi	a5,a3,2
     974:	000b2483          	lw	s1,0(s6)
     978:	08078c63          	beqz	a5,a10 <__sfvwrite_r+0xf8>
     97c:	02442783          	lw	a5,36(s0)
     980:	01c42583          	lw	a1,28(s0)
     984:	80000ab7          	lui	s5,0x80000
     988:	00000993          	li	s3,0
     98c:	00000913          	li	s2,0
     990:	c00aca93          	xori	s5,s5,-1024
     994:	00098613          	mv	a2,s3
     998:	000a0513          	mv	a0,s4
     99c:	04090263          	beqz	s2,9e0 <__sfvwrite_r+0xc8>
     9a0:	00090693          	mv	a3,s2
     9a4:	012af463          	bgeu	s5,s2,9ac <__sfvwrite_r+0x94>
     9a8:	000a8693          	mv	a3,s5
     9ac:	000780e7          	jalr	a5
     9b0:	26a05663          	blez	a0,c1c <__sfvwrite_r+0x304>
     9b4:	008b2783          	lw	a5,8(s6)
     9b8:	00a989b3          	add	s3,s3,a0
     9bc:	40a90933          	sub	s2,s2,a0
     9c0:	40a787b3          	sub	a5,a5,a0
     9c4:	00fb2423          	sw	a5,8(s6)
     9c8:	20078663          	beqz	a5,bd4 <__sfvwrite_r+0x2bc>
     9cc:	02442783          	lw	a5,36(s0)
     9d0:	01c42583          	lw	a1,28(s0)
     9d4:	00098613          	mv	a2,s3
     9d8:	000a0513          	mv	a0,s4
     9dc:	fc0912e3          	bnez	s2,9a0 <__sfvwrite_r+0x88>
     9e0:	0004a983          	lw	s3,0(s1)
     9e4:	0044a903          	lw	s2,4(s1)
     9e8:	00848493          	addi	s1,s1,8
     9ec:	fa9ff06f          	j	994 <__sfvwrite_r+0x7c>
     9f0:	00040593          	mv	a1,s0
     9f4:	000a0513          	mv	a0,s4
     9f8:	7c8010ef          	jal	ra,21c0 <__swsetup_r>
     9fc:	22051663          	bnez	a0,c28 <__sfvwrite_r+0x310>
     a00:	00c41683          	lh	a3,12(s0)
     a04:	000b2483          	lw	s1,0(s6)
     a08:	0026f793          	andi	a5,a3,2
     a0c:	f60798e3          	bnez	a5,97c <__sfvwrite_r+0x64>
     a10:	0016f793          	andi	a5,a3,1
     a14:	12079c63          	bnez	a5,b4c <__sfvwrite_r+0x234>
     a18:	00042783          	lw	a5,0(s0)
     a1c:	00842703          	lw	a4,8(s0)
     a20:	80000ab7          	lui	s5,0x80000
     a24:	00000b93          	li	s7,0
     a28:	00000993          	li	s3,0
     a2c:	fffaca93          	not	s5,s5
     a30:	00078513          	mv	a0,a5
     a34:	00070c13          	mv	s8,a4
     a38:	10098263          	beqz	s3,b3c <__sfvwrite_r+0x224>
     a3c:	2006f613          	andi	a2,a3,512
     a40:	24060c63          	beqz	a2,c98 <__sfvwrite_r+0x380>
     a44:	00070c93          	mv	s9,a4
     a48:	2ee9e463          	bltu	s3,a4,d30 <__sfvwrite_r+0x418>
     a4c:	4806f713          	andi	a4,a3,1152
     a50:	08070a63          	beqz	a4,ae4 <__sfvwrite_r+0x1cc>
     a54:	01442603          	lw	a2,20(s0)
     a58:	01042583          	lw	a1,16(s0)
     a5c:	00161713          	slli	a4,a2,0x1
     a60:	00c70733          	add	a4,a4,a2
     a64:	40b78933          	sub	s2,a5,a1
     a68:	01f75c13          	srli	s8,a4,0x1f
     a6c:	00ec0c33          	add	s8,s8,a4
     a70:	00190793          	addi	a5,s2,1
     a74:	401c5c13          	srai	s8,s8,0x1
     a78:	013787b3          	add	a5,a5,s3
     a7c:	000c0613          	mv	a2,s8
     a80:	00fc7663          	bgeu	s8,a5,a8c <__sfvwrite_r+0x174>
     a84:	00078c13          	mv	s8,a5
     a88:	00078613          	mv	a2,a5
     a8c:	4006f693          	andi	a3,a3,1024
     a90:	2c068c63          	beqz	a3,d68 <__sfvwrite_r+0x450>
     a94:	00060593          	mv	a1,a2
     a98:	000a0513          	mv	a0,s4
     a9c:	470000ef          	jal	ra,f0c <_malloc_r>
     aa0:	00050c93          	mv	s9,a0
     aa4:	30050063          	beqz	a0,da4 <__sfvwrite_r+0x48c>
     aa8:	01042583          	lw	a1,16(s0)
     aac:	00090613          	mv	a2,s2
     ab0:	4b9000ef          	jal	ra,1768 <memcpy>
     ab4:	00c45783          	lhu	a5,12(s0)
     ab8:	b7f7f793          	andi	a5,a5,-1153
     abc:	0807e793          	ori	a5,a5,128
     ac0:	00f41623          	sh	a5,12(s0)
     ac4:	012c8533          	add	a0,s9,s2
     ac8:	412c07b3          	sub	a5,s8,s2
     acc:	01942823          	sw	s9,16(s0)
     ad0:	01842a23          	sw	s8,20(s0)
     ad4:	00a42023          	sw	a0,0(s0)
     ad8:	00098c13          	mv	s8,s3
     adc:	00f42423          	sw	a5,8(s0)
     ae0:	00098c93          	mv	s9,s3
     ae4:	000c8613          	mv	a2,s9
     ae8:	000b8593          	mv	a1,s7
     aec:	621000ef          	jal	ra,190c <memmove>
     af0:	00842703          	lw	a4,8(s0)
     af4:	00042783          	lw	a5,0(s0)
     af8:	00098913          	mv	s2,s3
     afc:	41870733          	sub	a4,a4,s8
     b00:	019787b3          	add	a5,a5,s9
     b04:	00e42423          	sw	a4,8(s0)
     b08:	00f42023          	sw	a5,0(s0)
     b0c:	00000993          	li	s3,0
     b10:	008b2783          	lw	a5,8(s6)
     b14:	012b8bb3          	add	s7,s7,s2
     b18:	412787b3          	sub	a5,a5,s2
     b1c:	00fb2423          	sw	a5,8(s6)
     b20:	0a078a63          	beqz	a5,bd4 <__sfvwrite_r+0x2bc>
     b24:	00042783          	lw	a5,0(s0)
     b28:	00842703          	lw	a4,8(s0)
     b2c:	00c41683          	lh	a3,12(s0)
     b30:	00078513          	mv	a0,a5
     b34:	00070c13          	mv	s8,a4
     b38:	f00992e3          	bnez	s3,a3c <__sfvwrite_r+0x124>
     b3c:	0004ab83          	lw	s7,0(s1)
     b40:	0044a983          	lw	s3,4(s1)
     b44:	00848493          	addi	s1,s1,8
     b48:	ee9ff06f          	j	a30 <__sfvwrite_r+0x118>
     b4c:	00000a93          	li	s5,0
     b50:	00000513          	li	a0,0
     b54:	00000c13          	li	s8,0
     b58:	00000993          	li	s3,0
     b5c:	0c098e63          	beqz	s3,c38 <__sfvwrite_r+0x320>
     b60:	0e050663          	beqz	a0,c4c <__sfvwrite_r+0x334>
     b64:	000a8793          	mv	a5,s5
     b68:	00098b93          	mv	s7,s3
     b6c:	0137f463          	bgeu	a5,s3,b74 <__sfvwrite_r+0x25c>
     b70:	00078b93          	mv	s7,a5
     b74:	00042503          	lw	a0,0(s0)
     b78:	01042783          	lw	a5,16(s0)
     b7c:	00842903          	lw	s2,8(s0)
     b80:	01442683          	lw	a3,20(s0)
     b84:	00a7f663          	bgeu	a5,a0,b90 <__sfvwrite_r+0x278>
     b88:	00d90933          	add	s2,s2,a3
     b8c:	0f794063          	blt	s2,s7,c6c <__sfvwrite_r+0x354>
     b90:	1adbc663          	blt	s7,a3,d3c <__sfvwrite_r+0x424>
     b94:	02442783          	lw	a5,36(s0)
     b98:	01c42583          	lw	a1,28(s0)
     b9c:	000c0613          	mv	a2,s8
     ba0:	000a0513          	mv	a0,s4
     ba4:	000780e7          	jalr	a5
     ba8:	00050913          	mv	s2,a0
     bac:	06a05863          	blez	a0,c1c <__sfvwrite_r+0x304>
     bb0:	412a8ab3          	sub	s5,s5,s2
     bb4:	00100513          	li	a0,1
     bb8:	040a8a63          	beqz	s5,c0c <__sfvwrite_r+0x2f4>
     bbc:	008b2783          	lw	a5,8(s6)
     bc0:	012c0c33          	add	s8,s8,s2
     bc4:	412989b3          	sub	s3,s3,s2
     bc8:	412787b3          	sub	a5,a5,s2
     bcc:	00fb2423          	sw	a5,8(s6)
     bd0:	f80796e3          	bnez	a5,b5c <__sfvwrite_r+0x244>
     bd4:	00000513          	li	a0,0
     bd8:	02c12083          	lw	ra,44(sp)
     bdc:	02812403          	lw	s0,40(sp)
     be0:	02412483          	lw	s1,36(sp)
     be4:	02012903          	lw	s2,32(sp)
     be8:	01c12983          	lw	s3,28(sp)
     bec:	01812a03          	lw	s4,24(sp)
     bf0:	01412a83          	lw	s5,20(sp)
     bf4:	01012b03          	lw	s6,16(sp)
     bf8:	00c12b83          	lw	s7,12(sp)
     bfc:	00812c03          	lw	s8,8(sp)
     c00:	00412c83          	lw	s9,4(sp)
     c04:	03010113          	addi	sp,sp,48
     c08:	00008067          	ret
     c0c:	00040593          	mv	a1,s0
     c10:	000a0513          	mv	a0,s4
     c14:	2d1010ef          	jal	ra,26e4 <_fflush_r>
     c18:	fa0502e3          	beqz	a0,bbc <__sfvwrite_r+0x2a4>
     c1c:	00c41783          	lh	a5,12(s0)
     c20:	0407e793          	ori	a5,a5,64
     c24:	00f41623          	sh	a5,12(s0)
     c28:	fff00513          	li	a0,-1
     c2c:	fadff06f          	j	bd8 <__sfvwrite_r+0x2c0>
     c30:	00000513          	li	a0,0
     c34:	00008067          	ret
     c38:	0044a983          	lw	s3,4(s1)
     c3c:	00048793          	mv	a5,s1
     c40:	00848493          	addi	s1,s1,8
     c44:	fe098ae3          	beqz	s3,c38 <__sfvwrite_r+0x320>
     c48:	0007ac03          	lw	s8,0(a5)
     c4c:	00098613          	mv	a2,s3
     c50:	00a00593          	li	a1,10
     c54:	000c0513          	mv	a0,s8
     c58:	24d000ef          	jal	ra,16a4 <memchr>
     c5c:	12050e63          	beqz	a0,d98 <__sfvwrite_r+0x480>
     c60:	00150513          	addi	a0,a0,1
     c64:	41850ab3          	sub	s5,a0,s8
     c68:	efdff06f          	j	b64 <__sfvwrite_r+0x24c>
     c6c:	000c0593          	mv	a1,s8
     c70:	00090613          	mv	a2,s2
     c74:	499000ef          	jal	ra,190c <memmove>
     c78:	00042783          	lw	a5,0(s0)
     c7c:	00040593          	mv	a1,s0
     c80:	000a0513          	mv	a0,s4
     c84:	012787b3          	add	a5,a5,s2
     c88:	00f42023          	sw	a5,0(s0)
     c8c:	259010ef          	jal	ra,26e4 <_fflush_r>
     c90:	f20500e3          	beqz	a0,bb0 <__sfvwrite_r+0x298>
     c94:	f89ff06f          	j	c1c <__sfvwrite_r+0x304>
     c98:	01042683          	lw	a3,16(s0)
     c9c:	04f6e263          	bltu	a3,a5,ce0 <__sfvwrite_r+0x3c8>
     ca0:	01442603          	lw	a2,20(s0)
     ca4:	02c9ee63          	bltu	s3,a2,ce0 <__sfvwrite_r+0x3c8>
     ca8:	00098793          	mv	a5,s3
     cac:	013af463          	bgeu	s5,s3,cb4 <__sfvwrite_r+0x39c>
     cb0:	000a8793          	mv	a5,s5
     cb4:	02c7e6b3          	rem	a3,a5,a2
     cb8:	02442703          	lw	a4,36(s0)
     cbc:	01c42583          	lw	a1,28(s0)
     cc0:	000b8613          	mv	a2,s7
     cc4:	000a0513          	mv	a0,s4
     cc8:	40d786b3          	sub	a3,a5,a3
     ccc:	000700e7          	jalr	a4
     cd0:	00050913          	mv	s2,a0
     cd4:	f4a054e3          	blez	a0,c1c <__sfvwrite_r+0x304>
     cd8:	412989b3          	sub	s3,s3,s2
     cdc:	e35ff06f          	j	b10 <__sfvwrite_r+0x1f8>
     ce0:	00070913          	mv	s2,a4
     ce4:	00e9f463          	bgeu	s3,a4,cec <__sfvwrite_r+0x3d4>
     ce8:	00098913          	mv	s2,s3
     cec:	00078513          	mv	a0,a5
     cf0:	00090613          	mv	a2,s2
     cf4:	000b8593          	mv	a1,s7
     cf8:	415000ef          	jal	ra,190c <memmove>
     cfc:	00842703          	lw	a4,8(s0)
     d00:	00042783          	lw	a5,0(s0)
     d04:	41270733          	sub	a4,a4,s2
     d08:	012787b3          	add	a5,a5,s2
     d0c:	00e42423          	sw	a4,8(s0)
     d10:	00f42023          	sw	a5,0(s0)
     d14:	fc0712e3          	bnez	a4,cd8 <__sfvwrite_r+0x3c0>
     d18:	00040593          	mv	a1,s0
     d1c:	000a0513          	mv	a0,s4
     d20:	1c5010ef          	jal	ra,26e4 <_fflush_r>
     d24:	ee051ce3          	bnez	a0,c1c <__sfvwrite_r+0x304>
     d28:	412989b3          	sub	s3,s3,s2
     d2c:	de5ff06f          	j	b10 <__sfvwrite_r+0x1f8>
     d30:	00098c13          	mv	s8,s3
     d34:	00098c93          	mv	s9,s3
     d38:	dadff06f          	j	ae4 <__sfvwrite_r+0x1cc>
     d3c:	000b8613          	mv	a2,s7
     d40:	000c0593          	mv	a1,s8
     d44:	3c9000ef          	jal	ra,190c <memmove>
     d48:	00842703          	lw	a4,8(s0)
     d4c:	00042783          	lw	a5,0(s0)
     d50:	000b8913          	mv	s2,s7
     d54:	41770733          	sub	a4,a4,s7
     d58:	017787b3          	add	a5,a5,s7
     d5c:	00e42423          	sw	a4,8(s0)
     d60:	00f42023          	sw	a5,0(s0)
     d64:	e4dff06f          	j	bb0 <__sfvwrite_r+0x298>
     d68:	000a0513          	mv	a0,s4
     d6c:	4c5000ef          	jal	ra,1a30 <_realloc_r>
     d70:	00050c93          	mv	s9,a0
     d74:	d40518e3          	bnez	a0,ac4 <__sfvwrite_r+0x1ac>
     d78:	01042583          	lw	a1,16(s0)
     d7c:	000a0513          	mv	a0,s4
     d80:	389010ef          	jal	ra,2908 <_free_r>
     d84:	00c41783          	lh	a5,12(s0)
     d88:	00c00713          	li	a4,12
     d8c:	00ea2023          	sw	a4,0(s4)
     d90:	f7f7f793          	andi	a5,a5,-129
     d94:	e8dff06f          	j	c20 <__sfvwrite_r+0x308>
     d98:	00198793          	addi	a5,s3,1
     d9c:	00078a93          	mv	s5,a5
     da0:	dc9ff06f          	j	b68 <__sfvwrite_r+0x250>
     da4:	00c00713          	li	a4,12
     da8:	00c41783          	lh	a5,12(s0)
     dac:	00ea2023          	sw	a4,0(s4)
     db0:	e71ff06f          	j	c20 <__sfvwrite_r+0x308>

00000db4 <_fwalk>:
     db4:	fe010113          	addi	sp,sp,-32
     db8:	01212823          	sw	s2,16(sp)
     dbc:	01312623          	sw	s3,12(sp)
     dc0:	01412423          	sw	s4,8(sp)
     dc4:	01512223          	sw	s5,4(sp)
     dc8:	01612023          	sw	s6,0(sp)
     dcc:	00112e23          	sw	ra,28(sp)
     dd0:	00812c23          	sw	s0,24(sp)
     dd4:	00912a23          	sw	s1,20(sp)
     dd8:	00058b13          	mv	s6,a1
     ddc:	2e050a93          	addi	s5,a0,736
     de0:	00000a13          	li	s4,0
     de4:	00100993          	li	s3,1
     de8:	fff00913          	li	s2,-1
     dec:	004aa483          	lw	s1,4(s5) # 80000004 <_end+0x7fffbbaa>
     df0:	008aa403          	lw	s0,8(s5)
     df4:	fff48493          	addi	s1,s1,-1
     df8:	0204c663          	bltz	s1,e24 <_fwalk+0x70>
     dfc:	00c45783          	lhu	a5,12(s0)
     e00:	fff48493          	addi	s1,s1,-1
     e04:	00f9fc63          	bgeu	s3,a5,e1c <_fwalk+0x68>
     e08:	00e41783          	lh	a5,14(s0)
     e0c:	00040513          	mv	a0,s0
     e10:	01278663          	beq	a5,s2,e1c <_fwalk+0x68>
     e14:	000b00e7          	jalr	s6
     e18:	00aa6a33          	or	s4,s4,a0
     e1c:	06840413          	addi	s0,s0,104
     e20:	fd249ee3          	bne	s1,s2,dfc <_fwalk+0x48>
     e24:	000aaa83          	lw	s5,0(s5)
     e28:	fc0a92e3          	bnez	s5,dec <_fwalk+0x38>
     e2c:	01c12083          	lw	ra,28(sp)
     e30:	01812403          	lw	s0,24(sp)
     e34:	01412483          	lw	s1,20(sp)
     e38:	01012903          	lw	s2,16(sp)
     e3c:	00c12983          	lw	s3,12(sp)
     e40:	00412a83          	lw	s5,4(sp)
     e44:	00012b03          	lw	s6,0(sp)
     e48:	000a0513          	mv	a0,s4
     e4c:	00812a03          	lw	s4,8(sp)
     e50:	02010113          	addi	sp,sp,32
     e54:	00008067          	ret

00000e58 <_fwalk_reent>:
     e58:	fd010113          	addi	sp,sp,-48
     e5c:	03212023          	sw	s2,32(sp)
     e60:	01312e23          	sw	s3,28(sp)
     e64:	01412c23          	sw	s4,24(sp)
     e68:	01512a23          	sw	s5,20(sp)
     e6c:	01612823          	sw	s6,16(sp)
     e70:	01712623          	sw	s7,12(sp)
     e74:	02112623          	sw	ra,44(sp)
     e78:	02812423          	sw	s0,40(sp)
     e7c:	02912223          	sw	s1,36(sp)
     e80:	00050a93          	mv	s5,a0
     e84:	00058b93          	mv	s7,a1
     e88:	2e050b13          	addi	s6,a0,736
     e8c:	00000a13          	li	s4,0
     e90:	00100993          	li	s3,1
     e94:	fff00913          	li	s2,-1
     e98:	004b2483          	lw	s1,4(s6)
     e9c:	008b2403          	lw	s0,8(s6)
     ea0:	fff48493          	addi	s1,s1,-1
     ea4:	0204c863          	bltz	s1,ed4 <_fwalk_reent+0x7c>
     ea8:	00c45783          	lhu	a5,12(s0)
     eac:	fff48493          	addi	s1,s1,-1
     eb0:	00f9fe63          	bgeu	s3,a5,ecc <_fwalk_reent+0x74>
     eb4:	00e41783          	lh	a5,14(s0)
     eb8:	00040593          	mv	a1,s0
     ebc:	000a8513          	mv	a0,s5
     ec0:	01278663          	beq	a5,s2,ecc <_fwalk_reent+0x74>
     ec4:	000b80e7          	jalr	s7
     ec8:	00aa6a33          	or	s4,s4,a0
     ecc:	06840413          	addi	s0,s0,104
     ed0:	fd249ce3          	bne	s1,s2,ea8 <_fwalk_reent+0x50>
     ed4:	000b2b03          	lw	s6,0(s6)
     ed8:	fc0b10e3          	bnez	s6,e98 <_fwalk_reent+0x40>
     edc:	02c12083          	lw	ra,44(sp)
     ee0:	02812403          	lw	s0,40(sp)
     ee4:	02412483          	lw	s1,36(sp)
     ee8:	02012903          	lw	s2,32(sp)
     eec:	01c12983          	lw	s3,28(sp)
     ef0:	01412a83          	lw	s5,20(sp)
     ef4:	01012b03          	lw	s6,16(sp)
     ef8:	00c12b83          	lw	s7,12(sp)
     efc:	000a0513          	mv	a0,s4
     f00:	01812a03          	lw	s4,24(sp)
     f04:	03010113          	addi	sp,sp,48
     f08:	00008067          	ret

00000f0c <_malloc_r>:
     f0c:	fd010113          	addi	sp,sp,-48
     f10:	01312e23          	sw	s3,28(sp)
     f14:	02112623          	sw	ra,44(sp)
     f18:	02812423          	sw	s0,40(sp)
     f1c:	02912223          	sw	s1,36(sp)
     f20:	03212023          	sw	s2,32(sp)
     f24:	01412c23          	sw	s4,24(sp)
     f28:	01512a23          	sw	s5,20(sp)
     f2c:	01612823          	sw	s6,16(sp)
     f30:	01712623          	sw	s7,12(sp)
     f34:	01812423          	sw	s8,8(sp)
     f38:	01912223          	sw	s9,4(sp)
     f3c:	00b58793          	addi	a5,a1,11
     f40:	01600713          	li	a4,22
     f44:	00050993          	mv	s3,a0
     f48:	08f76e63          	bltu	a4,a5,fe4 <_malloc_r+0xd8>
     f4c:	01000793          	li	a5,16
     f50:	22b7e063          	bltu	a5,a1,1170 <_malloc_r+0x264>
     f54:	2d5000ef          	jal	ra,1a28 <__malloc_lock>
     f58:	01000493          	li	s1,16
     f5c:	01800793          	li	a5,24
     f60:	00200593          	li	a1,2
     f64:	00004937          	lui	s2,0x4
     f68:	a2890913          	addi	s2,s2,-1496 # 3a28 <__malloc_av_>
     f6c:	00f907b3          	add	a5,s2,a5
     f70:	0047a403          	lw	s0,4(a5)
     f74:	ff878713          	addi	a4,a5,-8
     f78:	30e40e63          	beq	s0,a4,1294 <_malloc_r+0x388>
     f7c:	00442783          	lw	a5,4(s0)
     f80:	00c42683          	lw	a3,12(s0)
     f84:	00842603          	lw	a2,8(s0)
     f88:	ffc7f793          	andi	a5,a5,-4
     f8c:	00f407b3          	add	a5,s0,a5
     f90:	0047a703          	lw	a4,4(a5)
     f94:	00d62623          	sw	a3,12(a2)
     f98:	00c6a423          	sw	a2,8(a3)
     f9c:	00176713          	ori	a4,a4,1
     fa0:	00098513          	mv	a0,s3
     fa4:	00e7a223          	sw	a4,4(a5)
     fa8:	285000ef          	jal	ra,1a2c <__malloc_unlock>
     fac:	00840513          	addi	a0,s0,8
     fb0:	02c12083          	lw	ra,44(sp)
     fb4:	02812403          	lw	s0,40(sp)
     fb8:	02412483          	lw	s1,36(sp)
     fbc:	02012903          	lw	s2,32(sp)
     fc0:	01c12983          	lw	s3,28(sp)
     fc4:	01812a03          	lw	s4,24(sp)
     fc8:	01412a83          	lw	s5,20(sp)
     fcc:	01012b03          	lw	s6,16(sp)
     fd0:	00c12b83          	lw	s7,12(sp)
     fd4:	00812c03          	lw	s8,8(sp)
     fd8:	00412c83          	lw	s9,4(sp)
     fdc:	03010113          	addi	sp,sp,48
     fe0:	00008067          	ret
     fe4:	ff87f493          	andi	s1,a5,-8
     fe8:	1807c463          	bltz	a5,1170 <_malloc_r+0x264>
     fec:	18b4e263          	bltu	s1,a1,1170 <_malloc_r+0x264>
     ff0:	239000ef          	jal	ra,1a28 <__malloc_lock>
     ff4:	1f700793          	li	a5,503
     ff8:	3a97f863          	bgeu	a5,s1,13a8 <_malloc_r+0x49c>
     ffc:	0094d793          	srli	a5,s1,0x9
    1000:	18078063          	beqz	a5,1180 <_malloc_r+0x274>
    1004:	00400713          	li	a4,4
    1008:	2ef76e63          	bltu	a4,a5,1304 <_malloc_r+0x3f8>
    100c:	0064d793          	srli	a5,s1,0x6
    1010:	03978593          	addi	a1,a5,57
    1014:	03878513          	addi	a0,a5,56
    1018:	00359693          	slli	a3,a1,0x3
    101c:	00004937          	lui	s2,0x4
    1020:	a2890913          	addi	s2,s2,-1496 # 3a28 <__malloc_av_>
    1024:	00d906b3          	add	a3,s2,a3
    1028:	0046a403          	lw	s0,4(a3)
    102c:	ff868693          	addi	a3,a3,-8
    1030:	02868663          	beq	a3,s0,105c <_malloc_r+0x150>
    1034:	00f00613          	li	a2,15
    1038:	0100006f          	j	1048 <_malloc_r+0x13c>
    103c:	24075663          	bgez	a4,1288 <_malloc_r+0x37c>
    1040:	00c42403          	lw	s0,12(s0)
    1044:	00868c63          	beq	a3,s0,105c <_malloc_r+0x150>
    1048:	00442783          	lw	a5,4(s0)
    104c:	ffc7f793          	andi	a5,a5,-4
    1050:	40978733          	sub	a4,a5,s1
    1054:	fee654e3          	bge	a2,a4,103c <_malloc_r+0x130>
    1058:	00050593          	mv	a1,a0
    105c:	01092403          	lw	s0,16(s2)
    1060:	00004837          	lui	a6,0x4
    1064:	a3080813          	addi	a6,a6,-1488 # 3a30 <__malloc_av_+0x8>
    1068:	1f040863          	beq	s0,a6,1258 <_malloc_r+0x34c>
    106c:	00442783          	lw	a5,4(s0)
    1070:	00f00693          	li	a3,15
    1074:	ffc7f793          	andi	a5,a5,-4
    1078:	40978733          	sub	a4,a5,s1
    107c:	32e6cc63          	blt	a3,a4,13b4 <_malloc_r+0x4a8>
    1080:	01092a23          	sw	a6,20(s2)
    1084:	01092823          	sw	a6,16(s2)
    1088:	30075063          	bgez	a4,1388 <_malloc_r+0x47c>
    108c:	1ff00713          	li	a4,511
    1090:	00492503          	lw	a0,4(s2)
    1094:	20f76863          	bltu	a4,a5,12a4 <_malloc_r+0x398>
    1098:	ff87f713          	andi	a4,a5,-8
    109c:	00870713          	addi	a4,a4,8
    10a0:	00e90733          	add	a4,s2,a4
    10a4:	00072683          	lw	a3,0(a4)
    10a8:	0057d613          	srli	a2,a5,0x5
    10ac:	00100793          	li	a5,1
    10b0:	00c797b3          	sll	a5,a5,a2
    10b4:	00f56533          	or	a0,a0,a5
    10b8:	ff870793          	addi	a5,a4,-8
    10bc:	00f42623          	sw	a5,12(s0)
    10c0:	00d42423          	sw	a3,8(s0)
    10c4:	00a92223          	sw	a0,4(s2)
    10c8:	00872023          	sw	s0,0(a4)
    10cc:	0086a623          	sw	s0,12(a3)
    10d0:	4025d793          	srai	a5,a1,0x2
    10d4:	00100613          	li	a2,1
    10d8:	00f61633          	sll	a2,a2,a5
    10dc:	0ac56a63          	bltu	a0,a2,1190 <_malloc_r+0x284>
    10e0:	00a677b3          	and	a5,a2,a0
    10e4:	02079463          	bnez	a5,110c <_malloc_r+0x200>
    10e8:	00161613          	slli	a2,a2,0x1
    10ec:	ffc5f593          	andi	a1,a1,-4
    10f0:	00a677b3          	and	a5,a2,a0
    10f4:	00458593          	addi	a1,a1,4
    10f8:	00079a63          	bnez	a5,110c <_malloc_r+0x200>
    10fc:	00161613          	slli	a2,a2,0x1
    1100:	00a677b3          	and	a5,a2,a0
    1104:	00458593          	addi	a1,a1,4
    1108:	fe078ae3          	beqz	a5,10fc <_malloc_r+0x1f0>
    110c:	00f00893          	li	a7,15
    1110:	00359313          	slli	t1,a1,0x3
    1114:	00690333          	add	t1,s2,t1
    1118:	00030513          	mv	a0,t1
    111c:	00c52783          	lw	a5,12(a0)
    1120:	00058e13          	mv	t3,a1
    1124:	20f50263          	beq	a0,a5,1328 <_malloc_r+0x41c>
    1128:	0047a703          	lw	a4,4(a5)
    112c:	00078413          	mv	s0,a5
    1130:	00c7a783          	lw	a5,12(a5)
    1134:	ffc77713          	andi	a4,a4,-4
    1138:	409706b3          	sub	a3,a4,s1
    113c:	20d8c263          	blt	a7,a3,1340 <_malloc_r+0x434>
    1140:	fe06c2e3          	bltz	a3,1124 <_malloc_r+0x218>
    1144:	00e40733          	add	a4,s0,a4
    1148:	00472683          	lw	a3,4(a4)
    114c:	00842603          	lw	a2,8(s0)
    1150:	00098513          	mv	a0,s3
    1154:	0016e693          	ori	a3,a3,1
    1158:	00d72223          	sw	a3,4(a4)
    115c:	00f62623          	sw	a5,12(a2)
    1160:	00c7a423          	sw	a2,8(a5)
    1164:	0c9000ef          	jal	ra,1a2c <__malloc_unlock>
    1168:	00840513          	addi	a0,s0,8
    116c:	e45ff06f          	j	fb0 <_malloc_r+0xa4>
    1170:	00c00793          	li	a5,12
    1174:	00f9a023          	sw	a5,0(s3)
    1178:	00000513          	li	a0,0
    117c:	e35ff06f          	j	fb0 <_malloc_r+0xa4>
    1180:	20000693          	li	a3,512
    1184:	04000593          	li	a1,64
    1188:	03f00513          	li	a0,63
    118c:	e91ff06f          	j	101c <_malloc_r+0x110>
    1190:	00892403          	lw	s0,8(s2)
    1194:	00442783          	lw	a5,4(s0)
    1198:	ffc7fb13          	andi	s6,a5,-4
    119c:	009b6863          	bltu	s6,s1,11ac <_malloc_r+0x2a0>
    11a0:	409b0733          	sub	a4,s6,s1
    11a4:	00f00793          	li	a5,15
    11a8:	0ae7cc63          	blt	a5,a4,1260 <_malloc_r+0x354>
    11ac:	000037b7          	lui	a5,0x3
    11b0:	00003cb7          	lui	s9,0x3
    11b4:	5f07aa83          	lw	s5,1520(a5) # 35f0 <__malloc_top_pad>
    11b8:	59cca703          	lw	a4,1436(s9) # 359c <__malloc_sbrk_base>
    11bc:	fff00793          	li	a5,-1
    11c0:	01640a33          	add	s4,s0,s6
    11c4:	01548ab3          	add	s5,s1,s5
    11c8:	3af70c63          	beq	a4,a5,1580 <_malloc_r+0x674>
    11cc:	000017b7          	lui	a5,0x1
    11d0:	00f78793          	addi	a5,a5,15 # 100f <_malloc_r+0x103>
    11d4:	00fa8ab3          	add	s5,s5,a5
    11d8:	fffff7b7          	lui	a5,0xfffff
    11dc:	00fafab3          	and	s5,s5,a5
    11e0:	000a8593          	mv	a1,s5
    11e4:	00098513          	mv	a0,s3
    11e8:	5a1000ef          	jal	ra,1f88 <_sbrk_r>
    11ec:	fff00793          	li	a5,-1
    11f0:	00050b93          	mv	s7,a0
    11f4:	20f50a63          	beq	a0,a5,1408 <_malloc_r+0x4fc>
    11f8:	21456663          	bltu	a0,s4,1404 <_malloc_r+0x4f8>
    11fc:	00003c37          	lui	s8,0x3
    1200:	5c0c0c13          	addi	s8,s8,1472 # 35c0 <__malloc_current_mallinfo>
    1204:	000c2583          	lw	a1,0(s8)
    1208:	00ba85b3          	add	a1,s5,a1
    120c:	00bc2023          	sw	a1,0(s8)
    1210:	00058713          	mv	a4,a1
    1214:	28aa1c63          	bne	s4,a0,14ac <_malloc_r+0x5a0>
    1218:	01451793          	slli	a5,a0,0x14
    121c:	28079863          	bnez	a5,14ac <_malloc_r+0x5a0>
    1220:	00892b83          	lw	s7,8(s2)
    1224:	015b07b3          	add	a5,s6,s5
    1228:	0017e793          	ori	a5,a5,1
    122c:	00fba223          	sw	a5,4(s7)
    1230:	00003737          	lui	a4,0x3
    1234:	5ec72683          	lw	a3,1516(a4) # 35ec <__malloc_max_sbrked_mem>
    1238:	00b6f463          	bgeu	a3,a1,1240 <_malloc_r+0x334>
    123c:	5eb72623          	sw	a1,1516(a4)
    1240:	00003737          	lui	a4,0x3
    1244:	5e872683          	lw	a3,1512(a4) # 35e8 <__malloc_max_total_mem>
    1248:	00b6f463          	bgeu	a3,a1,1250 <_malloc_r+0x344>
    124c:	5eb72423          	sw	a1,1512(a4)
    1250:	000b8413          	mv	s0,s7
    1254:	1bc0006f          	j	1410 <_malloc_r+0x504>
    1258:	00492503          	lw	a0,4(s2)
    125c:	e75ff06f          	j	10d0 <_malloc_r+0x1c4>
    1260:	0014e793          	ori	a5,s1,1
    1264:	00f42223          	sw	a5,4(s0)
    1268:	009404b3          	add	s1,s0,s1
    126c:	00992423          	sw	s1,8(s2)
    1270:	00176713          	ori	a4,a4,1
    1274:	00098513          	mv	a0,s3
    1278:	00e4a223          	sw	a4,4(s1)
    127c:	7b0000ef          	jal	ra,1a2c <__malloc_unlock>
    1280:	00840513          	addi	a0,s0,8
    1284:	d2dff06f          	j	fb0 <_malloc_r+0xa4>
    1288:	00c42683          	lw	a3,12(s0)
    128c:	00842603          	lw	a2,8(s0)
    1290:	cfdff06f          	j	f8c <_malloc_r+0x80>
    1294:	00c7a403          	lw	s0,12(a5) # fffff00c <_end+0xffffabb2>
    1298:	00258593          	addi	a1,a1,2
    129c:	dc8780e3          	beq	a5,s0,105c <_malloc_r+0x150>
    12a0:	cddff06f          	j	f7c <_malloc_r+0x70>
    12a4:	0097d713          	srli	a4,a5,0x9
    12a8:	00400693          	li	a3,4
    12ac:	14e6f263          	bgeu	a3,a4,13f0 <_malloc_r+0x4e4>
    12b0:	01400693          	li	a3,20
    12b4:	30e6ec63          	bltu	a3,a4,15cc <_malloc_r+0x6c0>
    12b8:	05c70613          	addi	a2,a4,92
    12bc:	05b70693          	addi	a3,a4,91
    12c0:	00361613          	slli	a2,a2,0x3
    12c4:	00c90633          	add	a2,s2,a2
    12c8:	00062703          	lw	a4,0(a2)
    12cc:	ff860613          	addi	a2,a2,-8
    12d0:	00e61863          	bne	a2,a4,12e0 <_malloc_r+0x3d4>
    12d4:	2b40006f          	j	1588 <_malloc_r+0x67c>
    12d8:	00872703          	lw	a4,8(a4)
    12dc:	00e60863          	beq	a2,a4,12ec <_malloc_r+0x3e0>
    12e0:	00472683          	lw	a3,4(a4)
    12e4:	ffc6f693          	andi	a3,a3,-4
    12e8:	fed7e8e3          	bltu	a5,a3,12d8 <_malloc_r+0x3cc>
    12ec:	00c72603          	lw	a2,12(a4)
    12f0:	00c42623          	sw	a2,12(s0)
    12f4:	00e42423          	sw	a4,8(s0)
    12f8:	00862423          	sw	s0,8(a2)
    12fc:	00872623          	sw	s0,12(a4)
    1300:	dd1ff06f          	j	10d0 <_malloc_r+0x1c4>
    1304:	01400713          	li	a4,20
    1308:	12f77663          	bgeu	a4,a5,1434 <_malloc_r+0x528>
    130c:	05400713          	li	a4,84
    1310:	2cf76c63          	bltu	a4,a5,15e8 <_malloc_r+0x6dc>
    1314:	00c4d793          	srli	a5,s1,0xc
    1318:	06f78593          	addi	a1,a5,111
    131c:	06e78513          	addi	a0,a5,110
    1320:	00359693          	slli	a3,a1,0x3
    1324:	cf9ff06f          	j	101c <_malloc_r+0x110>
    1328:	001e0e13          	addi	t3,t3,1
    132c:	003e7793          	andi	a5,t3,3
    1330:	00850513          	addi	a0,a0,8
    1334:	10078e63          	beqz	a5,1450 <_malloc_r+0x544>
    1338:	00c52783          	lw	a5,12(a0)
    133c:	de9ff06f          	j	1124 <_malloc_r+0x218>
    1340:	00842603          	lw	a2,8(s0)
    1344:	0014e593          	ori	a1,s1,1
    1348:	00b42223          	sw	a1,4(s0)
    134c:	00f62623          	sw	a5,12(a2)
    1350:	00c7a423          	sw	a2,8(a5)
    1354:	009404b3          	add	s1,s0,s1
    1358:	00992a23          	sw	s1,20(s2)
    135c:	00992823          	sw	s1,16(s2)
    1360:	0016e793          	ori	a5,a3,1
    1364:	0104a623          	sw	a6,12(s1)
    1368:	0104a423          	sw	a6,8(s1)
    136c:	00f4a223          	sw	a5,4(s1)
    1370:	00e40733          	add	a4,s0,a4
    1374:	00098513          	mv	a0,s3
    1378:	00d72023          	sw	a3,0(a4)
    137c:	6b0000ef          	jal	ra,1a2c <__malloc_unlock>
    1380:	00840513          	addi	a0,s0,8
    1384:	c2dff06f          	j	fb0 <_malloc_r+0xa4>
    1388:	00f407b3          	add	a5,s0,a5
    138c:	0047a703          	lw	a4,4(a5)
    1390:	00098513          	mv	a0,s3
    1394:	00176713          	ori	a4,a4,1
    1398:	00e7a223          	sw	a4,4(a5)
    139c:	690000ef          	jal	ra,1a2c <__malloc_unlock>
    13a0:	00840513          	addi	a0,s0,8
    13a4:	c0dff06f          	j	fb0 <_malloc_r+0xa4>
    13a8:	0034d593          	srli	a1,s1,0x3
    13ac:	00848793          	addi	a5,s1,8
    13b0:	bb5ff06f          	j	f64 <_malloc_r+0x58>
    13b4:	0014e693          	ori	a3,s1,1
    13b8:	00d42223          	sw	a3,4(s0)
    13bc:	009404b3          	add	s1,s0,s1
    13c0:	00992a23          	sw	s1,20(s2)
    13c4:	00992823          	sw	s1,16(s2)
    13c8:	00176693          	ori	a3,a4,1
    13cc:	0104a623          	sw	a6,12(s1)
    13d0:	0104a423          	sw	a6,8(s1)
    13d4:	00d4a223          	sw	a3,4(s1)
    13d8:	00f407b3          	add	a5,s0,a5
    13dc:	00098513          	mv	a0,s3
    13e0:	00e7a023          	sw	a4,0(a5)
    13e4:	648000ef          	jal	ra,1a2c <__malloc_unlock>
    13e8:	00840513          	addi	a0,s0,8
    13ec:	bc5ff06f          	j	fb0 <_malloc_r+0xa4>
    13f0:	0067d713          	srli	a4,a5,0x6
    13f4:	03970613          	addi	a2,a4,57
    13f8:	03870693          	addi	a3,a4,56
    13fc:	00361613          	slli	a2,a2,0x3
    1400:	ec5ff06f          	j	12c4 <_malloc_r+0x3b8>
    1404:	09240a63          	beq	s0,s2,1498 <_malloc_r+0x58c>
    1408:	00892403          	lw	s0,8(s2)
    140c:	00442783          	lw	a5,4(s0)
    1410:	ffc7f793          	andi	a5,a5,-4
    1414:	40978733          	sub	a4,a5,s1
    1418:	0097e663          	bltu	a5,s1,1424 <_malloc_r+0x518>
    141c:	00f00793          	li	a5,15
    1420:	e4e7c0e3          	blt	a5,a4,1260 <_malloc_r+0x354>
    1424:	00098513          	mv	a0,s3
    1428:	604000ef          	jal	ra,1a2c <__malloc_unlock>
    142c:	00000513          	li	a0,0
    1430:	b81ff06f          	j	fb0 <_malloc_r+0xa4>
    1434:	05c78593          	addi	a1,a5,92
    1438:	05b78513          	addi	a0,a5,91
    143c:	00359693          	slli	a3,a1,0x3
    1440:	bddff06f          	j	101c <_malloc_r+0x110>
    1444:	00832783          	lw	a5,8(t1) # bc <frame_dummy+0x20>
    1448:	fff58593          	addi	a1,a1,-1
    144c:	24679863          	bne	a5,t1,169c <_malloc_r+0x790>
    1450:	0035f793          	andi	a5,a1,3
    1454:	ff830313          	addi	t1,t1,-8
    1458:	fe0796e3          	bnez	a5,1444 <_malloc_r+0x538>
    145c:	00492703          	lw	a4,4(s2)
    1460:	fff64793          	not	a5,a2
    1464:	00e7f7b3          	and	a5,a5,a4
    1468:	00f92223          	sw	a5,4(s2)
    146c:	00161613          	slli	a2,a2,0x1
    1470:	d2c7e0e3          	bltu	a5,a2,1190 <_malloc_r+0x284>
    1474:	d0060ee3          	beqz	a2,1190 <_malloc_r+0x284>
    1478:	00f67733          	and	a4,a2,a5
    147c:	00071a63          	bnez	a4,1490 <_malloc_r+0x584>
    1480:	00161613          	slli	a2,a2,0x1
    1484:	00f67733          	and	a4,a2,a5
    1488:	004e0e13          	addi	t3,t3,4
    148c:	fe070ae3          	beqz	a4,1480 <_malloc_r+0x574>
    1490:	000e0593          	mv	a1,t3
    1494:	c7dff06f          	j	1110 <_malloc_r+0x204>
    1498:	00003c37          	lui	s8,0x3
    149c:	5c0c0c13          	addi	s8,s8,1472 # 35c0 <__malloc_current_mallinfo>
    14a0:	000c2703          	lw	a4,0(s8)
    14a4:	00ea8733          	add	a4,s5,a4
    14a8:	00ec2023          	sw	a4,0(s8)
    14ac:	59cca683          	lw	a3,1436(s9)
    14b0:	fff00793          	li	a5,-1
    14b4:	14f68863          	beq	a3,a5,1604 <_malloc_r+0x6f8>
    14b8:	414b87b3          	sub	a5,s7,s4
    14bc:	00e787b3          	add	a5,a5,a4
    14c0:	00fc2023          	sw	a5,0(s8)
    14c4:	007bfc93          	andi	s9,s7,7
    14c8:	0c0c8c63          	beqz	s9,15a0 <_malloc_r+0x694>
    14cc:	00001737          	lui	a4,0x1
    14d0:	419b8bb3          	sub	s7,s7,s9
    14d4:	00870593          	addi	a1,a4,8 # 1008 <_malloc_r+0xfc>
    14d8:	008b8b93          	addi	s7,s7,8
    14dc:	419585b3          	sub	a1,a1,s9
    14e0:	015b8ab3          	add	s5,s7,s5
    14e4:	415585b3          	sub	a1,a1,s5
    14e8:	fff70713          	addi	a4,a4,-1
    14ec:	00e5fa33          	and	s4,a1,a4
    14f0:	000a0593          	mv	a1,s4
    14f4:	00098513          	mv	a0,s3
    14f8:	291000ef          	jal	ra,1f88 <_sbrk_r>
    14fc:	fff00793          	li	a5,-1
    1500:	14f50863          	beq	a0,a5,1650 <_malloc_r+0x744>
    1504:	41750533          	sub	a0,a0,s7
    1508:	01450ab3          	add	s5,a0,s4
    150c:	000c2703          	lw	a4,0(s8)
    1510:	01792423          	sw	s7,8(s2)
    1514:	001ae793          	ori	a5,s5,1
    1518:	00ea05b3          	add	a1,s4,a4
    151c:	00bc2023          	sw	a1,0(s8)
    1520:	00fba223          	sw	a5,4(s7)
    1524:	d12406e3          	beq	s0,s2,1230 <_malloc_r+0x324>
    1528:	00f00693          	li	a3,15
    152c:	0f66f063          	bgeu	a3,s6,160c <_malloc_r+0x700>
    1530:	00442703          	lw	a4,4(s0)
    1534:	ff4b0793          	addi	a5,s6,-12
    1538:	ff87f793          	andi	a5,a5,-8
    153c:	00177713          	andi	a4,a4,1
    1540:	00f76733          	or	a4,a4,a5
    1544:	00e42223          	sw	a4,4(s0)
    1548:	00500613          	li	a2,5
    154c:	00f40733          	add	a4,s0,a5
    1550:	00c72223          	sw	a2,4(a4)
    1554:	00c72423          	sw	a2,8(a4)
    1558:	00f6e663          	bltu	a3,a5,1564 <_malloc_r+0x658>
    155c:	004ba783          	lw	a5,4(s7)
    1560:	cd1ff06f          	j	1230 <_malloc_r+0x324>
    1564:	00840593          	addi	a1,s0,8
    1568:	00098513          	mv	a0,s3
    156c:	39c010ef          	jal	ra,2908 <_free_r>
    1570:	00892b83          	lw	s7,8(s2)
    1574:	000c2583          	lw	a1,0(s8)
    1578:	004ba783          	lw	a5,4(s7)
    157c:	cb5ff06f          	j	1230 <_malloc_r+0x324>
    1580:	010a8a93          	addi	s5,s5,16
    1584:	c5dff06f          	j	11e0 <_malloc_r+0x2d4>
    1588:	4026d693          	srai	a3,a3,0x2
    158c:	00100793          	li	a5,1
    1590:	00d797b3          	sll	a5,a5,a3
    1594:	00f56533          	or	a0,a0,a5
    1598:	00a92223          	sw	a0,4(s2)
    159c:	d55ff06f          	j	12f0 <_malloc_r+0x3e4>
    15a0:	015b85b3          	add	a1,s7,s5
    15a4:	40b005b3          	neg	a1,a1
    15a8:	01459593          	slli	a1,a1,0x14
    15ac:	0145da13          	srli	s4,a1,0x14
    15b0:	000a0593          	mv	a1,s4
    15b4:	00098513          	mv	a0,s3
    15b8:	1d1000ef          	jal	ra,1f88 <_sbrk_r>
    15bc:	fff00793          	li	a5,-1
    15c0:	f4f512e3          	bne	a0,a5,1504 <_malloc_r+0x5f8>
    15c4:	00000a13          	li	s4,0
    15c8:	f45ff06f          	j	150c <_malloc_r+0x600>
    15cc:	05400693          	li	a3,84
    15d0:	04e6e463          	bltu	a3,a4,1618 <_malloc_r+0x70c>
    15d4:	00c7d713          	srli	a4,a5,0xc
    15d8:	06f70613          	addi	a2,a4,111
    15dc:	06e70693          	addi	a3,a4,110
    15e0:	00361613          	slli	a2,a2,0x3
    15e4:	ce1ff06f          	j	12c4 <_malloc_r+0x3b8>
    15e8:	15400713          	li	a4,340
    15ec:	04f76463          	bltu	a4,a5,1634 <_malloc_r+0x728>
    15f0:	00f4d793          	srli	a5,s1,0xf
    15f4:	07878593          	addi	a1,a5,120
    15f8:	07778513          	addi	a0,a5,119
    15fc:	00359693          	slli	a3,a1,0x3
    1600:	a1dff06f          	j	101c <_malloc_r+0x110>
    1604:	597cae23          	sw	s7,1436(s9)
    1608:	ebdff06f          	j	14c4 <_malloc_r+0x5b8>
    160c:	00100793          	li	a5,1
    1610:	00fba223          	sw	a5,4(s7)
    1614:	e11ff06f          	j	1424 <_malloc_r+0x518>
    1618:	15400693          	li	a3,340
    161c:	04e6e463          	bltu	a3,a4,1664 <_malloc_r+0x758>
    1620:	00f7d713          	srli	a4,a5,0xf
    1624:	07870613          	addi	a2,a4,120
    1628:	07770693          	addi	a3,a4,119
    162c:	00361613          	slli	a2,a2,0x3
    1630:	c95ff06f          	j	12c4 <_malloc_r+0x3b8>
    1634:	55400713          	li	a4,1364
    1638:	04f76463          	bltu	a4,a5,1680 <_malloc_r+0x774>
    163c:	0124d793          	srli	a5,s1,0x12
    1640:	07d78593          	addi	a1,a5,125
    1644:	07c78513          	addi	a0,a5,124
    1648:	00359693          	slli	a3,a1,0x3
    164c:	9d1ff06f          	j	101c <_malloc_r+0x110>
    1650:	ff8c8c93          	addi	s9,s9,-8
    1654:	019a8ab3          	add	s5,s5,s9
    1658:	417a8ab3          	sub	s5,s5,s7
    165c:	00000a13          	li	s4,0
    1660:	eadff06f          	j	150c <_malloc_r+0x600>
    1664:	55400693          	li	a3,1364
    1668:	02e6e463          	bltu	a3,a4,1690 <_malloc_r+0x784>
    166c:	0127d713          	srli	a4,a5,0x12
    1670:	07d70613          	addi	a2,a4,125
    1674:	07c70693          	addi	a3,a4,124
    1678:	00361613          	slli	a2,a2,0x3
    167c:	c49ff06f          	j	12c4 <_malloc_r+0x3b8>
    1680:	3f800693          	li	a3,1016
    1684:	07f00593          	li	a1,127
    1688:	07e00513          	li	a0,126
    168c:	991ff06f          	j	101c <_malloc_r+0x110>
    1690:	3f800613          	li	a2,1016
    1694:	07e00693          	li	a3,126
    1698:	c2dff06f          	j	12c4 <_malloc_r+0x3b8>
    169c:	00492783          	lw	a5,4(s2)
    16a0:	dcdff06f          	j	146c <_malloc_r+0x560>

000016a4 <memchr>:
    16a4:	00357793          	andi	a5,a0,3
    16a8:	0ff5f693          	zext.b	a3,a1
    16ac:	02078e63          	beqz	a5,16e8 <memchr+0x44>
    16b0:	fff60793          	addi	a5,a2,-1
    16b4:	02060663          	beqz	a2,16e0 <memchr+0x3c>
    16b8:	fff00613          	li	a2,-1
    16bc:	0180006f          	j	16d4 <memchr+0x30>
    16c0:	00150513          	addi	a0,a0,1
    16c4:	00357713          	andi	a4,a0,3
    16c8:	02070263          	beqz	a4,16ec <memchr+0x48>
    16cc:	fff78793          	addi	a5,a5,-1
    16d0:	00c78863          	beq	a5,a2,16e0 <memchr+0x3c>
    16d4:	00054703          	lbu	a4,0(a0)
    16d8:	fed714e3          	bne	a4,a3,16c0 <memchr+0x1c>
    16dc:	00008067          	ret
    16e0:	00000513          	li	a0,0
    16e4:	00008067          	ret
    16e8:	00060793          	mv	a5,a2
    16ec:	00300713          	li	a4,3
    16f0:	04f77c63          	bgeu	a4,a5,1748 <memchr+0xa4>
    16f4:	0ff5f593          	zext.b	a1,a1
    16f8:	00859713          	slli	a4,a1,0x8
    16fc:	00b705b3          	add	a1,a4,a1
    1700:	01059713          	slli	a4,a1,0x10
    1704:	feff08b7          	lui	a7,0xfeff0
    1708:	80808837          	lui	a6,0x80808
    170c:	00e585b3          	add	a1,a1,a4
    1710:	eff88893          	addi	a7,a7,-257 # fefefeff <_end+0xfefebaa5>
    1714:	08080813          	addi	a6,a6,128 # 80808080 <_end+0x80803c26>
    1718:	00300313          	li	t1,3
    171c:	0100006f          	j	172c <memchr+0x88>
    1720:	ffc78793          	addi	a5,a5,-4
    1724:	00450513          	addi	a0,a0,4
    1728:	02f37063          	bgeu	t1,a5,1748 <memchr+0xa4>
    172c:	00052703          	lw	a4,0(a0)
    1730:	00e5c733          	xor	a4,a1,a4
    1734:	01170633          	add	a2,a4,a7
    1738:	fff74713          	not	a4,a4
    173c:	00e67733          	and	a4,a2,a4
    1740:	01077733          	and	a4,a4,a6
    1744:	fc070ee3          	beqz	a4,1720 <memchr+0x7c>
    1748:	00f50733          	add	a4,a0,a5
    174c:	00079863          	bnez	a5,175c <memchr+0xb8>
    1750:	f91ff06f          	j	16e0 <memchr+0x3c>
    1754:	00150513          	addi	a0,a0,1
    1758:	f8a704e3          	beq	a4,a0,16e0 <memchr+0x3c>
    175c:	00054783          	lbu	a5,0(a0)
    1760:	fed79ae3          	bne	a5,a3,1754 <memchr+0xb0>
    1764:	00008067          	ret

00001768 <memcpy>:
    1768:	00b547b3          	xor	a5,a0,a1
    176c:	0037f793          	andi	a5,a5,3
    1770:	00c508b3          	add	a7,a0,a2
    1774:	06079463          	bnez	a5,17dc <memcpy+0x74>
    1778:	00300793          	li	a5,3
    177c:	06c7f063          	bgeu	a5,a2,17dc <memcpy+0x74>
    1780:	00357793          	andi	a5,a0,3
    1784:	00050713          	mv	a4,a0
    1788:	06079a63          	bnez	a5,17fc <memcpy+0x94>
    178c:	ffc8f613          	andi	a2,a7,-4
    1790:	40e606b3          	sub	a3,a2,a4
    1794:	02000793          	li	a5,32
    1798:	08d7ce63          	blt	a5,a3,1834 <memcpy+0xcc>
    179c:	00058693          	mv	a3,a1
    17a0:	00070793          	mv	a5,a4
    17a4:	02c77863          	bgeu	a4,a2,17d4 <memcpy+0x6c>
    17a8:	0006a803          	lw	a6,0(a3)
    17ac:	00478793          	addi	a5,a5,4
    17b0:	00468693          	addi	a3,a3,4
    17b4:	ff07ae23          	sw	a6,-4(a5)
    17b8:	fec7e8e3          	bltu	a5,a2,17a8 <memcpy+0x40>
    17bc:	fff60793          	addi	a5,a2,-1
    17c0:	40e787b3          	sub	a5,a5,a4
    17c4:	ffc7f793          	andi	a5,a5,-4
    17c8:	00478793          	addi	a5,a5,4
    17cc:	00f70733          	add	a4,a4,a5
    17d0:	00f585b3          	add	a1,a1,a5
    17d4:	01176863          	bltu	a4,a7,17e4 <memcpy+0x7c>
    17d8:	00008067          	ret
    17dc:	00050713          	mv	a4,a0
    17e0:	05157863          	bgeu	a0,a7,1830 <memcpy+0xc8>
    17e4:	0005c783          	lbu	a5,0(a1)
    17e8:	00170713          	addi	a4,a4,1
    17ec:	00158593          	addi	a1,a1,1
    17f0:	fef70fa3          	sb	a5,-1(a4)
    17f4:	fee898e3          	bne	a7,a4,17e4 <memcpy+0x7c>
    17f8:	00008067          	ret
    17fc:	0005c683          	lbu	a3,0(a1)
    1800:	00170713          	addi	a4,a4,1
    1804:	00377793          	andi	a5,a4,3
    1808:	fed70fa3          	sb	a3,-1(a4)
    180c:	00158593          	addi	a1,a1,1
    1810:	f6078ee3          	beqz	a5,178c <memcpy+0x24>
    1814:	0005c683          	lbu	a3,0(a1)
    1818:	00170713          	addi	a4,a4,1
    181c:	00377793          	andi	a5,a4,3
    1820:	fed70fa3          	sb	a3,-1(a4)
    1824:	00158593          	addi	a1,a1,1
    1828:	fc079ae3          	bnez	a5,17fc <memcpy+0x94>
    182c:	f61ff06f          	j	178c <memcpy+0x24>
    1830:	00008067          	ret
    1834:	ff010113          	addi	sp,sp,-16
    1838:	00812623          	sw	s0,12(sp)
    183c:	02000413          	li	s0,32
    1840:	0005a383          	lw	t2,0(a1)
    1844:	0045a283          	lw	t0,4(a1)
    1848:	0085af83          	lw	t6,8(a1)
    184c:	00c5af03          	lw	t5,12(a1)
    1850:	0105ae83          	lw	t4,16(a1)
    1854:	0145ae03          	lw	t3,20(a1)
    1858:	0185a303          	lw	t1,24(a1)
    185c:	01c5a803          	lw	a6,28(a1)
    1860:	0205a683          	lw	a3,32(a1)
    1864:	02470713          	addi	a4,a4,36
    1868:	40e607b3          	sub	a5,a2,a4
    186c:	fc772e23          	sw	t2,-36(a4)
    1870:	fe572023          	sw	t0,-32(a4)
    1874:	fff72223          	sw	t6,-28(a4)
    1878:	ffe72423          	sw	t5,-24(a4)
    187c:	ffd72623          	sw	t4,-20(a4)
    1880:	ffc72823          	sw	t3,-16(a4)
    1884:	fe672a23          	sw	t1,-12(a4)
    1888:	ff072c23          	sw	a6,-8(a4)
    188c:	fed72e23          	sw	a3,-4(a4)
    1890:	02458593          	addi	a1,a1,36
    1894:	faf446e3          	blt	s0,a5,1840 <memcpy+0xd8>
    1898:	00058693          	mv	a3,a1
    189c:	00070793          	mv	a5,a4
    18a0:	02c77863          	bgeu	a4,a2,18d0 <memcpy+0x168>
    18a4:	0006a803          	lw	a6,0(a3)
    18a8:	00478793          	addi	a5,a5,4
    18ac:	00468693          	addi	a3,a3,4
    18b0:	ff07ae23          	sw	a6,-4(a5)
    18b4:	fec7e8e3          	bltu	a5,a2,18a4 <memcpy+0x13c>
    18b8:	fff60793          	addi	a5,a2,-1
    18bc:	40e787b3          	sub	a5,a5,a4
    18c0:	ffc7f793          	andi	a5,a5,-4
    18c4:	00478793          	addi	a5,a5,4
    18c8:	00f70733          	add	a4,a4,a5
    18cc:	00f585b3          	add	a1,a1,a5
    18d0:	01176863          	bltu	a4,a7,18e0 <memcpy+0x178>
    18d4:	00c12403          	lw	s0,12(sp)
    18d8:	01010113          	addi	sp,sp,16
    18dc:	00008067          	ret
    18e0:	0005c783          	lbu	a5,0(a1)
    18e4:	00170713          	addi	a4,a4,1
    18e8:	00158593          	addi	a1,a1,1
    18ec:	fef70fa3          	sb	a5,-1(a4)
    18f0:	fee882e3          	beq	a7,a4,18d4 <memcpy+0x16c>
    18f4:	0005c783          	lbu	a5,0(a1)
    18f8:	00170713          	addi	a4,a4,1
    18fc:	00158593          	addi	a1,a1,1
    1900:	fef70fa3          	sb	a5,-1(a4)
    1904:	fce89ee3          	bne	a7,a4,18e0 <memcpy+0x178>
    1908:	fcdff06f          	j	18d4 <memcpy+0x16c>

0000190c <memmove>:
    190c:	02a5f663          	bgeu	a1,a0,1938 <memmove+0x2c>
    1910:	00c58733          	add	a4,a1,a2
    1914:	02e57263          	bgeu	a0,a4,1938 <memmove+0x2c>
    1918:	00c507b3          	add	a5,a0,a2
    191c:	04060663          	beqz	a2,1968 <memmove+0x5c>
    1920:	fff74683          	lbu	a3,-1(a4)
    1924:	fff78793          	addi	a5,a5,-1
    1928:	fff70713          	addi	a4,a4,-1
    192c:	00d78023          	sb	a3,0(a5)
    1930:	fef518e3          	bne	a0,a5,1920 <memmove+0x14>
    1934:	00008067          	ret
    1938:	00f00793          	li	a5,15
    193c:	02c7e863          	bltu	a5,a2,196c <memmove+0x60>
    1940:	00050793          	mv	a5,a0
    1944:	fff60693          	addi	a3,a2,-1
    1948:	0c060a63          	beqz	a2,1a1c <memmove+0x110>
    194c:	00168693          	addi	a3,a3,1
    1950:	00d786b3          	add	a3,a5,a3
    1954:	0005c703          	lbu	a4,0(a1)
    1958:	00178793          	addi	a5,a5,1
    195c:	00158593          	addi	a1,a1,1
    1960:	fee78fa3          	sb	a4,-1(a5)
    1964:	fed798e3          	bne	a5,a3,1954 <memmove+0x48>
    1968:	00008067          	ret
    196c:	00b567b3          	or	a5,a0,a1
    1970:	0037f793          	andi	a5,a5,3
    1974:	08079e63          	bnez	a5,1a10 <memmove+0x104>
    1978:	ff060893          	addi	a7,a2,-16
    197c:	ff08f893          	andi	a7,a7,-16
    1980:	01088893          	addi	a7,a7,16
    1984:	011507b3          	add	a5,a0,a7
    1988:	00058693          	mv	a3,a1
    198c:	00050713          	mv	a4,a0
    1990:	0006a803          	lw	a6,0(a3)
    1994:	01068693          	addi	a3,a3,16
    1998:	01070713          	addi	a4,a4,16
    199c:	ff072823          	sw	a6,-16(a4)
    19a0:	ff46a803          	lw	a6,-12(a3)
    19a4:	ff072a23          	sw	a6,-12(a4)
    19a8:	ff86a803          	lw	a6,-8(a3)
    19ac:	ff072c23          	sw	a6,-8(a4)
    19b0:	ffc6a803          	lw	a6,-4(a3)
    19b4:	ff072e23          	sw	a6,-4(a4)
    19b8:	fcf71ce3          	bne	a4,a5,1990 <memmove+0x84>
    19bc:	00c67713          	andi	a4,a2,12
    19c0:	011585b3          	add	a1,a1,a7
    19c4:	00f67813          	andi	a6,a2,15
    19c8:	04070c63          	beqz	a4,1a20 <memmove+0x114>
    19cc:	00058693          	mv	a3,a1
    19d0:	00078713          	mv	a4,a5
    19d4:	01078eb3          	add	t4,a5,a6
    19d8:	00300e13          	li	t3,3
    19dc:	0006a303          	lw	t1,0(a3)
    19e0:	00470713          	addi	a4,a4,4
    19e4:	40ee88b3          	sub	a7,t4,a4
    19e8:	fe672e23          	sw	t1,-4(a4)
    19ec:	00468693          	addi	a3,a3,4
    19f0:	ff1e66e3          	bltu	t3,a7,19dc <memmove+0xd0>
    19f4:	ffc80713          	addi	a4,a6,-4
    19f8:	ffc77713          	andi	a4,a4,-4
    19fc:	00470713          	addi	a4,a4,4
    1a00:	00367613          	andi	a2,a2,3
    1a04:	00e787b3          	add	a5,a5,a4
    1a08:	00e585b3          	add	a1,a1,a4
    1a0c:	f39ff06f          	j	1944 <memmove+0x38>
    1a10:	fff60693          	addi	a3,a2,-1
    1a14:	00050793          	mv	a5,a0
    1a18:	f35ff06f          	j	194c <memmove+0x40>
    1a1c:	00008067          	ret
    1a20:	00080613          	mv	a2,a6
    1a24:	f21ff06f          	j	1944 <memmove+0x38>

00001a28 <__malloc_lock>:
    1a28:	00008067          	ret

00001a2c <__malloc_unlock>:
    1a2c:	00008067          	ret

00001a30 <_realloc_r>:
    1a30:	fd010113          	addi	sp,sp,-48
    1a34:	02912223          	sw	s1,36(sp)
    1a38:	02112623          	sw	ra,44(sp)
    1a3c:	02812423          	sw	s0,40(sp)
    1a40:	03212023          	sw	s2,32(sp)
    1a44:	01312e23          	sw	s3,28(sp)
    1a48:	01412c23          	sw	s4,24(sp)
    1a4c:	01512a23          	sw	s5,20(sp)
    1a50:	01612823          	sw	s6,16(sp)
    1a54:	01712623          	sw	s7,12(sp)
    1a58:	01812423          	sw	s8,8(sp)
    1a5c:	00060493          	mv	s1,a2
    1a60:	1c058263          	beqz	a1,1c24 <_realloc_r+0x1f4>
    1a64:	00058413          	mv	s0,a1
    1a68:	00050913          	mv	s2,a0
    1a6c:	fbdff0ef          	jal	ra,1a28 <__malloc_lock>
    1a70:	ffc42703          	lw	a4,-4(s0)
    1a74:	00b48793          	addi	a5,s1,11
    1a78:	01600693          	li	a3,22
    1a7c:	ff840a93          	addi	s5,s0,-8
    1a80:	ffc77993          	andi	s3,a4,-4
    1a84:	0ef6f663          	bgeu	a3,a5,1b70 <_realloc_r+0x140>
    1a88:	ff87fa13          	andi	s4,a5,-8
    1a8c:	0e07c663          	bltz	a5,1b78 <_realloc_r+0x148>
    1a90:	0e9a6463          	bltu	s4,s1,1b78 <_realloc_r+0x148>
    1a94:	1149d463          	bge	s3,s4,1b9c <_realloc_r+0x16c>
    1a98:	000047b7          	lui	a5,0x4
    1a9c:	a2878c13          	addi	s8,a5,-1496 # 3a28 <__malloc_av_>
    1aa0:	008c2603          	lw	a2,8(s8)
    1aa4:	013a86b3          	add	a3,s5,s3
    1aa8:	0046a783          	lw	a5,4(a3)
    1aac:	1cd60e63          	beq	a2,a3,1c88 <_realloc_r+0x258>
    1ab0:	ffe7f613          	andi	a2,a5,-2
    1ab4:	00c68633          	add	a2,a3,a2
    1ab8:	00462603          	lw	a2,4(a2)
    1abc:	00167613          	andi	a2,a2,1
    1ac0:	14061463          	bnez	a2,1c08 <_realloc_r+0x1d8>
    1ac4:	ffc7f793          	andi	a5,a5,-4
    1ac8:	00f98633          	add	a2,s3,a5
    1acc:	0b465e63          	bge	a2,s4,1b88 <_realloc_r+0x158>
    1ad0:	00177713          	andi	a4,a4,1
    1ad4:	02071463          	bnez	a4,1afc <_realloc_r+0xcc>
    1ad8:	ff842b83          	lw	s7,-8(s0)
    1adc:	417a8bb3          	sub	s7,s5,s7
    1ae0:	004ba703          	lw	a4,4(s7)
    1ae4:	ffc77713          	andi	a4,a4,-4
    1ae8:	00e787b3          	add	a5,a5,a4
    1aec:	01378b33          	add	s6,a5,s3
    1af0:	334b5463          	bge	s6,s4,1e18 <_realloc_r+0x3e8>
    1af4:	00e98b33          	add	s6,s3,a4
    1af8:	294b5663          	bge	s6,s4,1d84 <_realloc_r+0x354>
    1afc:	00048593          	mv	a1,s1
    1b00:	00090513          	mv	a0,s2
    1b04:	c08ff0ef          	jal	ra,f0c <_malloc_r>
    1b08:	00050493          	mv	s1,a0
    1b0c:	40050263          	beqz	a0,1f10 <_realloc_r+0x4e0>
    1b10:	ffc42783          	lw	a5,-4(s0)
    1b14:	ff850713          	addi	a4,a0,-8
    1b18:	ffe7f793          	andi	a5,a5,-2
    1b1c:	00fa87b3          	add	a5,s5,a5
    1b20:	24e78a63          	beq	a5,a4,1d74 <_realloc_r+0x344>
    1b24:	ffc98613          	addi	a2,s3,-4
    1b28:	02400793          	li	a5,36
    1b2c:	2ec7e063          	bltu	a5,a2,1e0c <_realloc_r+0x3dc>
    1b30:	01300713          	li	a4,19
    1b34:	20c76e63          	bltu	a4,a2,1d50 <_realloc_r+0x320>
    1b38:	00050793          	mv	a5,a0
    1b3c:	00040713          	mv	a4,s0
    1b40:	00072683          	lw	a3,0(a4)
    1b44:	00d7a023          	sw	a3,0(a5)
    1b48:	00472683          	lw	a3,4(a4)
    1b4c:	00d7a223          	sw	a3,4(a5)
    1b50:	00872703          	lw	a4,8(a4)
    1b54:	00e7a423          	sw	a4,8(a5)
    1b58:	00090513          	mv	a0,s2
    1b5c:	00040593          	mv	a1,s0
    1b60:	5a9000ef          	jal	ra,2908 <_free_r>
    1b64:	00090513          	mv	a0,s2
    1b68:	ec5ff0ef          	jal	ra,1a2c <__malloc_unlock>
    1b6c:	0680006f          	j	1bd4 <_realloc_r+0x1a4>
    1b70:	01000a13          	li	s4,16
    1b74:	f29a70e3          	bgeu	s4,s1,1a94 <_realloc_r+0x64>
    1b78:	00c00793          	li	a5,12
    1b7c:	00f92023          	sw	a5,0(s2)
    1b80:	00000493          	li	s1,0
    1b84:	0500006f          	j	1bd4 <_realloc_r+0x1a4>
    1b88:	00c6a783          	lw	a5,12(a3)
    1b8c:	0086a703          	lw	a4,8(a3)
    1b90:	00060993          	mv	s3,a2
    1b94:	00f72623          	sw	a5,12(a4)
    1b98:	00e7a423          	sw	a4,8(a5)
    1b9c:	004aa783          	lw	a5,4(s5)
    1ba0:	414986b3          	sub	a3,s3,s4
    1ba4:	00f00613          	li	a2,15
    1ba8:	0017f793          	andi	a5,a5,1
    1bac:	013a8733          	add	a4,s5,s3
    1bb0:	0ad66463          	bltu	a2,a3,1c58 <_realloc_r+0x228>
    1bb4:	0137e7b3          	or	a5,a5,s3
    1bb8:	00faa223          	sw	a5,4(s5)
    1bbc:	00472783          	lw	a5,4(a4)
    1bc0:	0017e793          	ori	a5,a5,1
    1bc4:	00f72223          	sw	a5,4(a4)
    1bc8:	00090513          	mv	a0,s2
    1bcc:	e61ff0ef          	jal	ra,1a2c <__malloc_unlock>
    1bd0:	00040493          	mv	s1,s0
    1bd4:	02c12083          	lw	ra,44(sp)
    1bd8:	02812403          	lw	s0,40(sp)
    1bdc:	02012903          	lw	s2,32(sp)
    1be0:	01c12983          	lw	s3,28(sp)
    1be4:	01812a03          	lw	s4,24(sp)
    1be8:	01412a83          	lw	s5,20(sp)
    1bec:	01012b03          	lw	s6,16(sp)
    1bf0:	00c12b83          	lw	s7,12(sp)
    1bf4:	00812c03          	lw	s8,8(sp)
    1bf8:	00048513          	mv	a0,s1
    1bfc:	02412483          	lw	s1,36(sp)
    1c00:	03010113          	addi	sp,sp,48
    1c04:	00008067          	ret
    1c08:	00177713          	andi	a4,a4,1
    1c0c:	ee0718e3          	bnez	a4,1afc <_realloc_r+0xcc>
    1c10:	ff842b83          	lw	s7,-8(s0)
    1c14:	417a8bb3          	sub	s7,s5,s7
    1c18:	004ba703          	lw	a4,4(s7)
    1c1c:	ffc77713          	andi	a4,a4,-4
    1c20:	ed5ff06f          	j	1af4 <_realloc_r+0xc4>
    1c24:	02812403          	lw	s0,40(sp)
    1c28:	02c12083          	lw	ra,44(sp)
    1c2c:	02412483          	lw	s1,36(sp)
    1c30:	02012903          	lw	s2,32(sp)
    1c34:	01c12983          	lw	s3,28(sp)
    1c38:	01812a03          	lw	s4,24(sp)
    1c3c:	01412a83          	lw	s5,20(sp)
    1c40:	01012b03          	lw	s6,16(sp)
    1c44:	00c12b83          	lw	s7,12(sp)
    1c48:	00812c03          	lw	s8,8(sp)
    1c4c:	00060593          	mv	a1,a2
    1c50:	03010113          	addi	sp,sp,48
    1c54:	ab8ff06f          	j	f0c <_malloc_r>
    1c58:	0147e7b3          	or	a5,a5,s4
    1c5c:	00faa223          	sw	a5,4(s5)
    1c60:	014a85b3          	add	a1,s5,s4
    1c64:	0016e693          	ori	a3,a3,1
    1c68:	00d5a223          	sw	a3,4(a1)
    1c6c:	00472783          	lw	a5,4(a4)
    1c70:	00858593          	addi	a1,a1,8
    1c74:	00090513          	mv	a0,s2
    1c78:	0017e793          	ori	a5,a5,1
    1c7c:	00f72223          	sw	a5,4(a4)
    1c80:	489000ef          	jal	ra,2908 <_free_r>
    1c84:	f45ff06f          	j	1bc8 <_realloc_r+0x198>
    1c88:	ffc7f793          	andi	a5,a5,-4
    1c8c:	013786b3          	add	a3,a5,s3
    1c90:	010a0613          	addi	a2,s4,16
    1c94:	22c6de63          	bge	a3,a2,1ed0 <_realloc_r+0x4a0>
    1c98:	00177713          	andi	a4,a4,1
    1c9c:	e60710e3          	bnez	a4,1afc <_realloc_r+0xcc>
    1ca0:	ff842b83          	lw	s7,-8(s0)
    1ca4:	417a8bb3          	sub	s7,s5,s7
    1ca8:	004ba703          	lw	a4,4(s7)
    1cac:	ffc77713          	andi	a4,a4,-4
    1cb0:	00e787b3          	add	a5,a5,a4
    1cb4:	01378b33          	add	s6,a5,s3
    1cb8:	e2cb4ee3          	blt	s6,a2,1af4 <_realloc_r+0xc4>
    1cbc:	00cba783          	lw	a5,12(s7)
    1cc0:	008ba703          	lw	a4,8(s7)
    1cc4:	ffc98613          	addi	a2,s3,-4
    1cc8:	02400693          	li	a3,36
    1ccc:	00f72623          	sw	a5,12(a4)
    1cd0:	00e7a423          	sw	a4,8(a5)
    1cd4:	008b8493          	addi	s1,s7,8
    1cd8:	26c6e263          	bltu	a3,a2,1f3c <_realloc_r+0x50c>
    1cdc:	01300713          	li	a4,19
    1ce0:	00048793          	mv	a5,s1
    1ce4:	02c77263          	bgeu	a4,a2,1d08 <_realloc_r+0x2d8>
    1ce8:	00042703          	lw	a4,0(s0)
    1cec:	01b00793          	li	a5,27
    1cf0:	00eba423          	sw	a4,8(s7)
    1cf4:	00442703          	lw	a4,4(s0)
    1cf8:	00eba623          	sw	a4,12(s7)
    1cfc:	24c7e863          	bltu	a5,a2,1f4c <_realloc_r+0x51c>
    1d00:	00840413          	addi	s0,s0,8
    1d04:	010b8793          	addi	a5,s7,16
    1d08:	00042703          	lw	a4,0(s0)
    1d0c:	00e7a023          	sw	a4,0(a5)
    1d10:	00442703          	lw	a4,4(s0)
    1d14:	00e7a223          	sw	a4,4(a5)
    1d18:	00842703          	lw	a4,8(s0)
    1d1c:	00e7a423          	sw	a4,8(a5)
    1d20:	014b8733          	add	a4,s7,s4
    1d24:	414b0b33          	sub	s6,s6,s4
    1d28:	00ec2423          	sw	a4,8(s8)
    1d2c:	001b6793          	ori	a5,s6,1
    1d30:	00f72223          	sw	a5,4(a4)
    1d34:	004ba783          	lw	a5,4(s7)
    1d38:	00090513          	mv	a0,s2
    1d3c:	0017f793          	andi	a5,a5,1
    1d40:	0147e7b3          	or	a5,a5,s4
    1d44:	00fba223          	sw	a5,4(s7)
    1d48:	ce5ff0ef          	jal	ra,1a2c <__malloc_unlock>
    1d4c:	e89ff06f          	j	1bd4 <_realloc_r+0x1a4>
    1d50:	00042683          	lw	a3,0(s0)
    1d54:	01b00713          	li	a4,27
    1d58:	00d52023          	sw	a3,0(a0)
    1d5c:	00442683          	lw	a3,4(s0)
    1d60:	00d52223          	sw	a3,4(a0)
    1d64:	14c76663          	bltu	a4,a2,1eb0 <_realloc_r+0x480>
    1d68:	00840713          	addi	a4,s0,8
    1d6c:	00850793          	addi	a5,a0,8
    1d70:	dd1ff06f          	j	1b40 <_realloc_r+0x110>
    1d74:	ffc52783          	lw	a5,-4(a0)
    1d78:	ffc7f793          	andi	a5,a5,-4
    1d7c:	00f989b3          	add	s3,s3,a5
    1d80:	e1dff06f          	j	1b9c <_realloc_r+0x16c>
    1d84:	00cba783          	lw	a5,12(s7)
    1d88:	008ba703          	lw	a4,8(s7)
    1d8c:	ffc98613          	addi	a2,s3,-4
    1d90:	02400693          	li	a3,36
    1d94:	00f72623          	sw	a5,12(a4)
    1d98:	00e7a423          	sw	a4,8(a5)
    1d9c:	008b8493          	addi	s1,s7,8
    1da0:	10c6e063          	bltu	a3,a2,1ea0 <_realloc_r+0x470>
    1da4:	01300713          	li	a4,19
    1da8:	00048793          	mv	a5,s1
    1dac:	02c77c63          	bgeu	a4,a2,1de4 <_realloc_r+0x3b4>
    1db0:	00042703          	lw	a4,0(s0)
    1db4:	01b00793          	li	a5,27
    1db8:	00eba423          	sw	a4,8(s7)
    1dbc:	00442703          	lw	a4,4(s0)
    1dc0:	00eba623          	sw	a4,12(s7)
    1dc4:	14c7f063          	bgeu	a5,a2,1f04 <_realloc_r+0x4d4>
    1dc8:	00842783          	lw	a5,8(s0)
    1dcc:	00fba823          	sw	a5,16(s7)
    1dd0:	00c42783          	lw	a5,12(s0)
    1dd4:	00fbaa23          	sw	a5,20(s7)
    1dd8:	0ad60663          	beq	a2,a3,1e84 <_realloc_r+0x454>
    1ddc:	01040413          	addi	s0,s0,16
    1de0:	018b8793          	addi	a5,s7,24
    1de4:	00042703          	lw	a4,0(s0)
    1de8:	00e7a023          	sw	a4,0(a5)
    1dec:	00442703          	lw	a4,4(s0)
    1df0:	00e7a223          	sw	a4,4(a5)
    1df4:	00842703          	lw	a4,8(s0)
    1df8:	00e7a423          	sw	a4,8(a5)
    1dfc:	00048413          	mv	s0,s1
    1e00:	000b0993          	mv	s3,s6
    1e04:	000b8a93          	mv	s5,s7
    1e08:	d95ff06f          	j	1b9c <_realloc_r+0x16c>
    1e0c:	00040593          	mv	a1,s0
    1e10:	afdff0ef          	jal	ra,190c <memmove>
    1e14:	d45ff06f          	j	1b58 <_realloc_r+0x128>
    1e18:	00c6a783          	lw	a5,12(a3)
    1e1c:	0086a703          	lw	a4,8(a3)
    1e20:	ffc98613          	addi	a2,s3,-4
    1e24:	02400693          	li	a3,36
    1e28:	00f72623          	sw	a5,12(a4)
    1e2c:	00e7a423          	sw	a4,8(a5)
    1e30:	008ba703          	lw	a4,8(s7)
    1e34:	00cba783          	lw	a5,12(s7)
    1e38:	008b8493          	addi	s1,s7,8
    1e3c:	00f72623          	sw	a5,12(a4)
    1e40:	00e7a423          	sw	a4,8(a5)
    1e44:	04c6ee63          	bltu	a3,a2,1ea0 <_realloc_r+0x470>
    1e48:	01300713          	li	a4,19
    1e4c:	00048793          	mv	a5,s1
    1e50:	f8c77ae3          	bgeu	a4,a2,1de4 <_realloc_r+0x3b4>
    1e54:	00042703          	lw	a4,0(s0)
    1e58:	01b00793          	li	a5,27
    1e5c:	00eba423          	sw	a4,8(s7)
    1e60:	00442703          	lw	a4,4(s0)
    1e64:	00eba623          	sw	a4,12(s7)
    1e68:	08c7fe63          	bgeu	a5,a2,1f04 <_realloc_r+0x4d4>
    1e6c:	00842703          	lw	a4,8(s0)
    1e70:	02400793          	li	a5,36
    1e74:	00eba823          	sw	a4,16(s7)
    1e78:	00c42703          	lw	a4,12(s0)
    1e7c:	00ebaa23          	sw	a4,20(s7)
    1e80:	f4f61ee3          	bne	a2,a5,1ddc <_realloc_r+0x3ac>
    1e84:	01042703          	lw	a4,16(s0)
    1e88:	020b8793          	addi	a5,s7,32
    1e8c:	01840413          	addi	s0,s0,24
    1e90:	00ebac23          	sw	a4,24(s7)
    1e94:	ffc42703          	lw	a4,-4(s0)
    1e98:	00ebae23          	sw	a4,28(s7)
    1e9c:	f49ff06f          	j	1de4 <_realloc_r+0x3b4>
    1ea0:	00040593          	mv	a1,s0
    1ea4:	00048513          	mv	a0,s1
    1ea8:	a65ff0ef          	jal	ra,190c <memmove>
    1eac:	f51ff06f          	j	1dfc <_realloc_r+0x3cc>
    1eb0:	00842703          	lw	a4,8(s0)
    1eb4:	00e52423          	sw	a4,8(a0)
    1eb8:	00c42703          	lw	a4,12(s0)
    1ebc:	00e52623          	sw	a4,12(a0)
    1ec0:	06f60063          	beq	a2,a5,1f20 <_realloc_r+0x4f0>
    1ec4:	01040713          	addi	a4,s0,16
    1ec8:	01050793          	addi	a5,a0,16
    1ecc:	c75ff06f          	j	1b40 <_realloc_r+0x110>
    1ed0:	014a8ab3          	add	s5,s5,s4
    1ed4:	414686b3          	sub	a3,a3,s4
    1ed8:	015c2423          	sw	s5,8(s8)
    1edc:	0016e793          	ori	a5,a3,1
    1ee0:	00faa223          	sw	a5,4(s5)
    1ee4:	ffc42783          	lw	a5,-4(s0)
    1ee8:	00090513          	mv	a0,s2
    1eec:	00040493          	mv	s1,s0
    1ef0:	0017f793          	andi	a5,a5,1
    1ef4:	0147e7b3          	or	a5,a5,s4
    1ef8:	fef42e23          	sw	a5,-4(s0)
    1efc:	b31ff0ef          	jal	ra,1a2c <__malloc_unlock>
    1f00:	cd5ff06f          	j	1bd4 <_realloc_r+0x1a4>
    1f04:	00840413          	addi	s0,s0,8
    1f08:	010b8793          	addi	a5,s7,16
    1f0c:	ed9ff06f          	j	1de4 <_realloc_r+0x3b4>
    1f10:	00090513          	mv	a0,s2
    1f14:	b19ff0ef          	jal	ra,1a2c <__malloc_unlock>
    1f18:	00000493          	li	s1,0
    1f1c:	cb9ff06f          	j	1bd4 <_realloc_r+0x1a4>
    1f20:	01042683          	lw	a3,16(s0)
    1f24:	01840713          	addi	a4,s0,24
    1f28:	01850793          	addi	a5,a0,24
    1f2c:	00d52823          	sw	a3,16(a0)
    1f30:	01442683          	lw	a3,20(s0)
    1f34:	00d52a23          	sw	a3,20(a0)
    1f38:	c09ff06f          	j	1b40 <_realloc_r+0x110>
    1f3c:	00040593          	mv	a1,s0
    1f40:	00048513          	mv	a0,s1
    1f44:	9c9ff0ef          	jal	ra,190c <memmove>
    1f48:	dd9ff06f          	j	1d20 <_realloc_r+0x2f0>
    1f4c:	00842783          	lw	a5,8(s0)
    1f50:	00fba823          	sw	a5,16(s7)
    1f54:	00c42783          	lw	a5,12(s0)
    1f58:	00fbaa23          	sw	a5,20(s7)
    1f5c:	00d60863          	beq	a2,a3,1f6c <_realloc_r+0x53c>
    1f60:	01040413          	addi	s0,s0,16
    1f64:	018b8793          	addi	a5,s7,24
    1f68:	da1ff06f          	j	1d08 <_realloc_r+0x2d8>
    1f6c:	01042703          	lw	a4,16(s0)
    1f70:	020b8793          	addi	a5,s7,32
    1f74:	01840413          	addi	s0,s0,24
    1f78:	00ebac23          	sw	a4,24(s7)
    1f7c:	ffc42703          	lw	a4,-4(s0)
    1f80:	00ebae23          	sw	a4,28(s7)
    1f84:	d85ff06f          	j	1d08 <_realloc_r+0x2d8>

00001f88 <_sbrk_r>:
    1f88:	ff010113          	addi	sp,sp,-16
    1f8c:	00812423          	sw	s0,8(sp)
    1f90:	00912223          	sw	s1,4(sp)
    1f94:	00050413          	mv	s0,a0
    1f98:	000034b7          	lui	s1,0x3
    1f9c:	00058513          	mv	a0,a1
    1fa0:	00112623          	sw	ra,12(sp)
    1fa4:	5e04aa23          	sw	zero,1524(s1) # 35f4 <errno>
    1fa8:	45c010ef          	jal	ra,3404 <_sbrk>
    1fac:	fff00793          	li	a5,-1
    1fb0:	00f50c63          	beq	a0,a5,1fc8 <_sbrk_r+0x40>
    1fb4:	00c12083          	lw	ra,12(sp)
    1fb8:	00812403          	lw	s0,8(sp)
    1fbc:	00412483          	lw	s1,4(sp)
    1fc0:	01010113          	addi	sp,sp,16
    1fc4:	00008067          	ret
    1fc8:	5f44a783          	lw	a5,1524(s1)
    1fcc:	fe0784e3          	beqz	a5,1fb4 <_sbrk_r+0x2c>
    1fd0:	00c12083          	lw	ra,12(sp)
    1fd4:	00f42023          	sw	a5,0(s0)
    1fd8:	00812403          	lw	s0,8(sp)
    1fdc:	00412483          	lw	s1,4(sp)
    1fe0:	01010113          	addi	sp,sp,16
    1fe4:	00008067          	ret

00001fe8 <__sread>:
    1fe8:	ff010113          	addi	sp,sp,-16
    1fec:	00812423          	sw	s0,8(sp)
    1ff0:	00058413          	mv	s0,a1
    1ff4:	00e59583          	lh	a1,14(a1)
    1ff8:	00112623          	sw	ra,12(sp)
    1ffc:	6e9000ef          	jal	ra,2ee4 <_read_r>
    2000:	02054063          	bltz	a0,2020 <__sread+0x38>
    2004:	05042783          	lw	a5,80(s0)
    2008:	00c12083          	lw	ra,12(sp)
    200c:	00a787b3          	add	a5,a5,a0
    2010:	04f42823          	sw	a5,80(s0)
    2014:	00812403          	lw	s0,8(sp)
    2018:	01010113          	addi	sp,sp,16
    201c:	00008067          	ret
    2020:	00c45783          	lhu	a5,12(s0)
    2024:	fffff737          	lui	a4,0xfffff
    2028:	fff70713          	addi	a4,a4,-1 # ffffefff <_end+0xffffaba5>
    202c:	00e7f7b3          	and	a5,a5,a4
    2030:	00c12083          	lw	ra,12(sp)
    2034:	00f41623          	sh	a5,12(s0)
    2038:	00812403          	lw	s0,8(sp)
    203c:	01010113          	addi	sp,sp,16
    2040:	00008067          	ret

00002044 <__seofread>:
    2044:	00000513          	li	a0,0
    2048:	00008067          	ret

0000204c <__swrite>:
    204c:	00c59783          	lh	a5,12(a1)
    2050:	fe010113          	addi	sp,sp,-32
    2054:	00812c23          	sw	s0,24(sp)
    2058:	00912a23          	sw	s1,20(sp)
    205c:	01212823          	sw	s2,16(sp)
    2060:	01312623          	sw	s3,12(sp)
    2064:	00112e23          	sw	ra,28(sp)
    2068:	1007f713          	andi	a4,a5,256
    206c:	00058413          	mv	s0,a1
    2070:	00050493          	mv	s1,a0
    2074:	00060913          	mv	s2,a2
    2078:	00068993          	mv	s3,a3
    207c:	04071063          	bnez	a4,20bc <__swrite+0x70>
    2080:	fffff737          	lui	a4,0xfffff
    2084:	fff70713          	addi	a4,a4,-1 # ffffefff <_end+0xffffaba5>
    2088:	00e7f7b3          	and	a5,a5,a4
    208c:	00e41583          	lh	a1,14(s0)
    2090:	00f41623          	sh	a5,12(s0)
    2094:	01812403          	lw	s0,24(sp)
    2098:	01c12083          	lw	ra,28(sp)
    209c:	00098693          	mv	a3,s3
    20a0:	00090613          	mv	a2,s2
    20a4:	00c12983          	lw	s3,12(sp)
    20a8:	01012903          	lw	s2,16(sp)
    20ac:	00048513          	mv	a0,s1
    20b0:	01412483          	lw	s1,20(sp)
    20b4:	02010113          	addi	sp,sp,32
    20b8:	09c0006f          	j	2154 <_write_r>
    20bc:	00e59583          	lh	a1,14(a1)
    20c0:	00200693          	li	a3,2
    20c4:	00000613          	li	a2,0
    20c8:	34d000ef          	jal	ra,2c14 <_lseek_r>
    20cc:	00c41783          	lh	a5,12(s0)
    20d0:	fb1ff06f          	j	2080 <__swrite+0x34>

000020d4 <__sseek>:
    20d4:	ff010113          	addi	sp,sp,-16
    20d8:	00812423          	sw	s0,8(sp)
    20dc:	00058413          	mv	s0,a1
    20e0:	00e59583          	lh	a1,14(a1)
    20e4:	00112623          	sw	ra,12(sp)
    20e8:	32d000ef          	jal	ra,2c14 <_lseek_r>
    20ec:	fff00793          	li	a5,-1
    20f0:	02f50863          	beq	a0,a5,2120 <__sseek+0x4c>
    20f4:	00c45783          	lhu	a5,12(s0)
    20f8:	00001737          	lui	a4,0x1
    20fc:	00c12083          	lw	ra,12(sp)
    2100:	00e7e7b3          	or	a5,a5,a4
    2104:	01079793          	slli	a5,a5,0x10
    2108:	4107d793          	srai	a5,a5,0x10
    210c:	04a42823          	sw	a0,80(s0)
    2110:	00f41623          	sh	a5,12(s0)
    2114:	00812403          	lw	s0,8(sp)
    2118:	01010113          	addi	sp,sp,16
    211c:	00008067          	ret
    2120:	00c45783          	lhu	a5,12(s0)
    2124:	fffff737          	lui	a4,0xfffff
    2128:	fff70713          	addi	a4,a4,-1 # ffffefff <_end+0xffffaba5>
    212c:	00e7f7b3          	and	a5,a5,a4
    2130:	01079793          	slli	a5,a5,0x10
    2134:	4107d793          	srai	a5,a5,0x10
    2138:	00c12083          	lw	ra,12(sp)
    213c:	00f41623          	sh	a5,12(s0)
    2140:	00812403          	lw	s0,8(sp)
    2144:	01010113          	addi	sp,sp,16
    2148:	00008067          	ret

0000214c <__sclose>:
    214c:	00e59583          	lh	a1,14(a1)
    2150:	1c80006f          	j	2318 <_close_r>

00002154 <_write_r>:
    2154:	ff010113          	addi	sp,sp,-16
    2158:	00058713          	mv	a4,a1
    215c:	00812423          	sw	s0,8(sp)
    2160:	00912223          	sw	s1,4(sp)
    2164:	00060593          	mv	a1,a2
    2168:	00050413          	mv	s0,a0
    216c:	000034b7          	lui	s1,0x3
    2170:	00068613          	mv	a2,a3
    2174:	00070513          	mv	a0,a4
    2178:	00112623          	sw	ra,12(sp)
    217c:	5e04aa23          	sw	zero,1524(s1) # 35f4 <errno>
    2180:	300010ef          	jal	ra,3480 <_write>
    2184:	fff00793          	li	a5,-1
    2188:	00f50c63          	beq	a0,a5,21a0 <_write_r+0x4c>
    218c:	00c12083          	lw	ra,12(sp)
    2190:	00812403          	lw	s0,8(sp)
    2194:	00412483          	lw	s1,4(sp)
    2198:	01010113          	addi	sp,sp,16
    219c:	00008067          	ret
    21a0:	5f44a783          	lw	a5,1524(s1)
    21a4:	fe0784e3          	beqz	a5,218c <_write_r+0x38>
    21a8:	00c12083          	lw	ra,12(sp)
    21ac:	00f42023          	sw	a5,0(s0)
    21b0:	00812403          	lw	s0,8(sp)
    21b4:	00412483          	lw	s1,4(sp)
    21b8:	01010113          	addi	sp,sp,16
    21bc:	00008067          	ret

000021c0 <__swsetup_r>:
    21c0:	000037b7          	lui	a5,0x3
    21c4:	5987a783          	lw	a5,1432(a5) # 3598 <_impure_ptr>
    21c8:	ff010113          	addi	sp,sp,-16
    21cc:	00812423          	sw	s0,8(sp)
    21d0:	00912223          	sw	s1,4(sp)
    21d4:	00112623          	sw	ra,12(sp)
    21d8:	00050493          	mv	s1,a0
    21dc:	00058413          	mv	s0,a1
    21e0:	00078663          	beqz	a5,21ec <__swsetup_r+0x2c>
    21e4:	0387a703          	lw	a4,56(a5)
    21e8:	08070063          	beqz	a4,2268 <__swsetup_r+0xa8>
    21ec:	00c41783          	lh	a5,12(s0)
    21f0:	0087f713          	andi	a4,a5,8
    21f4:	08070463          	beqz	a4,227c <__swsetup_r+0xbc>
    21f8:	01042703          	lw	a4,16(s0)
    21fc:	0a070063          	beqz	a4,229c <__swsetup_r+0xdc>
    2200:	0017f693          	andi	a3,a5,1
    2204:	02068863          	beqz	a3,2234 <__swsetup_r+0x74>
    2208:	01442683          	lw	a3,20(s0)
    220c:	00042423          	sw	zero,8(s0)
    2210:	00000513          	li	a0,0
    2214:	40d006b3          	neg	a3,a3
    2218:	00d42c23          	sw	a3,24(s0)
    221c:	02070a63          	beqz	a4,2250 <__swsetup_r+0x90>
    2220:	00c12083          	lw	ra,12(sp)
    2224:	00812403          	lw	s0,8(sp)
    2228:	00412483          	lw	s1,4(sp)
    222c:	01010113          	addi	sp,sp,16
    2230:	00008067          	ret
    2234:	0027f693          	andi	a3,a5,2
    2238:	00000613          	li	a2,0
    223c:	00069463          	bnez	a3,2244 <__swsetup_r+0x84>
    2240:	01442603          	lw	a2,20(s0)
    2244:	00c42423          	sw	a2,8(s0)
    2248:	00000513          	li	a0,0
    224c:	fc071ae3          	bnez	a4,2220 <__swsetup_r+0x60>
    2250:	0807f713          	andi	a4,a5,128
    2254:	fc0706e3          	beqz	a4,2220 <__swsetup_r+0x60>
    2258:	0407e793          	ori	a5,a5,64
    225c:	00f41623          	sh	a5,12(s0)
    2260:	fff00513          	li	a0,-1
    2264:	fbdff06f          	j	2220 <__swsetup_r+0x60>
    2268:	00078513          	mv	a0,a5
    226c:	e18fe0ef          	jal	ra,884 <__sinit>
    2270:	00c41783          	lh	a5,12(s0)
    2274:	0087f713          	andi	a4,a5,8
    2278:	f80710e3          	bnez	a4,21f8 <__swsetup_r+0x38>
    227c:	0107f713          	andi	a4,a5,16
    2280:	06070a63          	beqz	a4,22f4 <__swsetup_r+0x134>
    2284:	0047f713          	andi	a4,a5,4
    2288:	02071c63          	bnez	a4,22c0 <__swsetup_r+0x100>
    228c:	01042703          	lw	a4,16(s0)
    2290:	0087e793          	ori	a5,a5,8
    2294:	00f41623          	sh	a5,12(s0)
    2298:	f60714e3          	bnez	a4,2200 <__swsetup_r+0x40>
    229c:	2807f693          	andi	a3,a5,640
    22a0:	20000613          	li	a2,512
    22a4:	f4c68ee3          	beq	a3,a2,2200 <__swsetup_r+0x40>
    22a8:	00040593          	mv	a1,s0
    22ac:	00048513          	mv	a0,s1
    22b0:	1d1000ef          	jal	ra,2c80 <__smakebuf_r>
    22b4:	00c41783          	lh	a5,12(s0)
    22b8:	01042703          	lw	a4,16(s0)
    22bc:	f45ff06f          	j	2200 <__swsetup_r+0x40>
    22c0:	03042583          	lw	a1,48(s0)
    22c4:	00058e63          	beqz	a1,22e0 <__swsetup_r+0x120>
    22c8:	04040713          	addi	a4,s0,64
    22cc:	00e58863          	beq	a1,a4,22dc <__swsetup_r+0x11c>
    22d0:	00048513          	mv	a0,s1
    22d4:	634000ef          	jal	ra,2908 <_free_r>
    22d8:	00c41783          	lh	a5,12(s0)
    22dc:	02042823          	sw	zero,48(s0)
    22e0:	01042703          	lw	a4,16(s0)
    22e4:	fdb7f793          	andi	a5,a5,-37
    22e8:	00042223          	sw	zero,4(s0)
    22ec:	00e42023          	sw	a4,0(s0)
    22f0:	fa1ff06f          	j	2290 <__swsetup_r+0xd0>
    22f4:	00900713          	li	a4,9
    22f8:	00e4a023          	sw	a4,0(s1)
    22fc:	0407e793          	ori	a5,a5,64
    2300:	f5dff06f          	j	225c <__swsetup_r+0x9c>

00002304 <atexit>:
    2304:	00050593          	mv	a1,a0
    2308:	00000693          	li	a3,0
    230c:	00000613          	li	a2,0
    2310:	00000513          	li	a0,0
    2314:	5f10006f          	j	3104 <__register_exitproc>

00002318 <_close_r>:
    2318:	ff010113          	addi	sp,sp,-16
    231c:	00812423          	sw	s0,8(sp)
    2320:	00912223          	sw	s1,4(sp)
    2324:	00050413          	mv	s0,a0
    2328:	000034b7          	lui	s1,0x3
    232c:	00058513          	mv	a0,a1
    2330:	00112623          	sw	ra,12(sp)
    2334:	5e04aa23          	sw	zero,1524(s1) # 35f4 <errno>
    2338:	731000ef          	jal	ra,3268 <_close>
    233c:	fff00793          	li	a5,-1
    2340:	00f50c63          	beq	a0,a5,2358 <_close_r+0x40>
    2344:	00c12083          	lw	ra,12(sp)
    2348:	00812403          	lw	s0,8(sp)
    234c:	00412483          	lw	s1,4(sp)
    2350:	01010113          	addi	sp,sp,16
    2354:	00008067          	ret
    2358:	5f44a783          	lw	a5,1524(s1)
    235c:	fe0784e3          	beqz	a5,2344 <_close_r+0x2c>
    2360:	00c12083          	lw	ra,12(sp)
    2364:	00f42023          	sw	a5,0(s0)
    2368:	00812403          	lw	s0,8(sp)
    236c:	00412483          	lw	s1,4(sp)
    2370:	01010113          	addi	sp,sp,16
    2374:	00008067          	ret

00002378 <_fclose_r>:
    2378:	ff010113          	addi	sp,sp,-16
    237c:	00112623          	sw	ra,12(sp)
    2380:	00812423          	sw	s0,8(sp)
    2384:	00912223          	sw	s1,4(sp)
    2388:	01212023          	sw	s2,0(sp)
    238c:	02058063          	beqz	a1,23ac <_fclose_r+0x34>
    2390:	00058413          	mv	s0,a1
    2394:	00050493          	mv	s1,a0
    2398:	00050663          	beqz	a0,23a4 <_fclose_r+0x2c>
    239c:	03852783          	lw	a5,56(a0)
    23a0:	0a078c63          	beqz	a5,2458 <_fclose_r+0xe0>
    23a4:	00c41783          	lh	a5,12(s0)
    23a8:	02079263          	bnez	a5,23cc <_fclose_r+0x54>
    23ac:	00c12083          	lw	ra,12(sp)
    23b0:	00812403          	lw	s0,8(sp)
    23b4:	00000913          	li	s2,0
    23b8:	00412483          	lw	s1,4(sp)
    23bc:	00090513          	mv	a0,s2
    23c0:	00012903          	lw	s2,0(sp)
    23c4:	01010113          	addi	sp,sp,16
    23c8:	00008067          	ret
    23cc:	00040593          	mv	a1,s0
    23d0:	00048513          	mv	a0,s1
    23d4:	0c4000ef          	jal	ra,2498 <__sflush_r>
    23d8:	02c42783          	lw	a5,44(s0)
    23dc:	00050913          	mv	s2,a0
    23e0:	00078a63          	beqz	a5,23f4 <_fclose_r+0x7c>
    23e4:	01c42583          	lw	a1,28(s0)
    23e8:	00048513          	mv	a0,s1
    23ec:	000780e7          	jalr	a5
    23f0:	06054c63          	bltz	a0,2468 <_fclose_r+0xf0>
    23f4:	00c45783          	lhu	a5,12(s0)
    23f8:	0807f793          	andi	a5,a5,128
    23fc:	06079e63          	bnez	a5,2478 <_fclose_r+0x100>
    2400:	03042583          	lw	a1,48(s0)
    2404:	00058c63          	beqz	a1,241c <_fclose_r+0xa4>
    2408:	04040793          	addi	a5,s0,64
    240c:	00f58663          	beq	a1,a5,2418 <_fclose_r+0xa0>
    2410:	00048513          	mv	a0,s1
    2414:	4f4000ef          	jal	ra,2908 <_free_r>
    2418:	02042823          	sw	zero,48(s0)
    241c:	04442583          	lw	a1,68(s0)
    2420:	00058863          	beqz	a1,2430 <_fclose_r+0xb8>
    2424:	00048513          	mv	a0,s1
    2428:	4e0000ef          	jal	ra,2908 <_free_r>
    242c:	04042223          	sw	zero,68(s0)
    2430:	c64fe0ef          	jal	ra,894 <__sfp_lock_acquire>
    2434:	00041623          	sh	zero,12(s0)
    2438:	c60fe0ef          	jal	ra,898 <__sfp_lock_release>
    243c:	00c12083          	lw	ra,12(sp)
    2440:	00812403          	lw	s0,8(sp)
    2444:	00412483          	lw	s1,4(sp)
    2448:	00090513          	mv	a0,s2
    244c:	00012903          	lw	s2,0(sp)
    2450:	01010113          	addi	sp,sp,16
    2454:	00008067          	ret
    2458:	c2cfe0ef          	jal	ra,884 <__sinit>
    245c:	00c41783          	lh	a5,12(s0)
    2460:	f40786e3          	beqz	a5,23ac <_fclose_r+0x34>
    2464:	f69ff06f          	j	23cc <_fclose_r+0x54>
    2468:	00c45783          	lhu	a5,12(s0)
    246c:	fff00913          	li	s2,-1
    2470:	0807f793          	andi	a5,a5,128
    2474:	f80786e3          	beqz	a5,2400 <_fclose_r+0x88>
    2478:	01042583          	lw	a1,16(s0)
    247c:	00048513          	mv	a0,s1
    2480:	488000ef          	jal	ra,2908 <_free_r>
    2484:	f7dff06f          	j	2400 <_fclose_r+0x88>

00002488 <fclose>:
    2488:	000037b7          	lui	a5,0x3
    248c:	00050593          	mv	a1,a0
    2490:	5987a503          	lw	a0,1432(a5) # 3598 <_impure_ptr>
    2494:	ee5ff06f          	j	2378 <_fclose_r>

00002498 <__sflush_r>:
    2498:	00c59783          	lh	a5,12(a1)
    249c:	fe010113          	addi	sp,sp,-32
    24a0:	00812c23          	sw	s0,24(sp)
    24a4:	01312623          	sw	s3,12(sp)
    24a8:	00112e23          	sw	ra,28(sp)
    24ac:	00912a23          	sw	s1,20(sp)
    24b0:	01212823          	sw	s2,16(sp)
    24b4:	0087f713          	andi	a4,a5,8
    24b8:	00058413          	mv	s0,a1
    24bc:	00050993          	mv	s3,a0
    24c0:	12071263          	bnez	a4,25e4 <__sflush_r+0x14c>
    24c4:	00001737          	lui	a4,0x1
    24c8:	80070713          	addi	a4,a4,-2048 # 800 <__sfp+0xc0>
    24cc:	0045a683          	lw	a3,4(a1)
    24d0:	00e7e733          	or	a4,a5,a4
    24d4:	00e59623          	sh	a4,12(a1)
    24d8:	18d05863          	blez	a3,2668 <__sflush_r+0x1d0>
    24dc:	02842803          	lw	a6,40(s0)
    24e0:	0e080263          	beqz	a6,25c4 <__sflush_r+0x12c>
    24e4:	00c7d793          	srli	a5,a5,0xc
    24e8:	0009a483          	lw	s1,0(s3)
    24ec:	0017f793          	andi	a5,a5,1
    24f0:	0009a023          	sw	zero,0(s3)
    24f4:	01c42583          	lw	a1,28(s0)
    24f8:	18079063          	bnez	a5,2678 <__sflush_r+0x1e0>
    24fc:	00000613          	li	a2,0
    2500:	00100693          	li	a3,1
    2504:	00098513          	mv	a0,s3
    2508:	000800e7          	jalr	a6
    250c:	fff00793          	li	a5,-1
    2510:	00050613          	mv	a2,a0
    2514:	1af50063          	beq	a0,a5,26b4 <__sflush_r+0x21c>
    2518:	00c41703          	lh	a4,12(s0)
    251c:	02842803          	lw	a6,40(s0)
    2520:	01c42583          	lw	a1,28(s0)
    2524:	00477713          	andi	a4,a4,4
    2528:	00070e63          	beqz	a4,2544 <__sflush_r+0xac>
    252c:	00442703          	lw	a4,4(s0)
    2530:	03042783          	lw	a5,48(s0)
    2534:	40e60633          	sub	a2,a2,a4
    2538:	00078663          	beqz	a5,2544 <__sflush_r+0xac>
    253c:	03c42783          	lw	a5,60(s0)
    2540:	40f60633          	sub	a2,a2,a5
    2544:	00000693          	li	a3,0
    2548:	00098513          	mv	a0,s3
    254c:	000800e7          	jalr	a6
    2550:	fff00793          	li	a5,-1
    2554:	12f51663          	bne	a0,a5,2680 <__sflush_r+0x1e8>
    2558:	0009a683          	lw	a3,0(s3)
    255c:	01d00793          	li	a5,29
    2560:	0cd7ee63          	bltu	a5,a3,263c <__sflush_r+0x1a4>
    2564:	dfc00737          	lui	a4,0xdfc00
    2568:	ffe70713          	addi	a4,a4,-2 # dfbffffe <_end+0xdfbfbba4>
    256c:	40d75733          	sra	a4,a4,a3
    2570:	00177713          	andi	a4,a4,1
    2574:	00c41783          	lh	a5,12(s0)
    2578:	0c071463          	bnez	a4,2640 <__sflush_r+0x1a8>
    257c:	01042603          	lw	a2,16(s0)
    2580:	fffff737          	lui	a4,0xfffff
    2584:	7ff70713          	addi	a4,a4,2047 # fffff7ff <_end+0xffffb3a5>
    2588:	00e7f733          	and	a4,a5,a4
    258c:	00c7d793          	srli	a5,a5,0xc
    2590:	00e41623          	sh	a4,12(s0)
    2594:	00042223          	sw	zero,4(s0)
    2598:	00c42023          	sw	a2,0(s0)
    259c:	0017f793          	andi	a5,a5,1
    25a0:	12079c63          	bnez	a5,26d8 <__sflush_r+0x240>
    25a4:	03042583          	lw	a1,48(s0)
    25a8:	0099a023          	sw	s1,0(s3)
    25ac:	00058c63          	beqz	a1,25c4 <__sflush_r+0x12c>
    25b0:	04040793          	addi	a5,s0,64
    25b4:	00f58663          	beq	a1,a5,25c0 <__sflush_r+0x128>
    25b8:	00098513          	mv	a0,s3
    25bc:	34c000ef          	jal	ra,2908 <_free_r>
    25c0:	02042823          	sw	zero,48(s0)
    25c4:	00000513          	li	a0,0
    25c8:	01c12083          	lw	ra,28(sp)
    25cc:	01812403          	lw	s0,24(sp)
    25d0:	01412483          	lw	s1,20(sp)
    25d4:	01012903          	lw	s2,16(sp)
    25d8:	00c12983          	lw	s3,12(sp)
    25dc:	02010113          	addi	sp,sp,32
    25e0:	00008067          	ret
    25e4:	0105a903          	lw	s2,16(a1)
    25e8:	fc090ee3          	beqz	s2,25c4 <__sflush_r+0x12c>
    25ec:	0005a483          	lw	s1,0(a1)
    25f0:	0037f793          	andi	a5,a5,3
    25f4:	0125a023          	sw	s2,0(a1)
    25f8:	412484b3          	sub	s1,s1,s2
    25fc:	00000713          	li	a4,0
    2600:	00079463          	bnez	a5,2608 <__sflush_r+0x170>
    2604:	0145a703          	lw	a4,20(a1)
    2608:	00e42423          	sw	a4,8(s0)
    260c:	00904863          	bgtz	s1,261c <__sflush_r+0x184>
    2610:	fb5ff06f          	j	25c4 <__sflush_r+0x12c>
    2614:	00a90933          	add	s2,s2,a0
    2618:	fa9056e3          	blez	s1,25c4 <__sflush_r+0x12c>
    261c:	02442783          	lw	a5,36(s0)
    2620:	01c42583          	lw	a1,28(s0)
    2624:	00048693          	mv	a3,s1
    2628:	00090613          	mv	a2,s2
    262c:	00098513          	mv	a0,s3
    2630:	000780e7          	jalr	a5
    2634:	40a484b3          	sub	s1,s1,a0
    2638:	fca04ee3          	bgtz	a0,2614 <__sflush_r+0x17c>
    263c:	00c41783          	lh	a5,12(s0)
    2640:	0407e793          	ori	a5,a5,64
    2644:	01c12083          	lw	ra,28(sp)
    2648:	00f41623          	sh	a5,12(s0)
    264c:	01812403          	lw	s0,24(sp)
    2650:	01412483          	lw	s1,20(sp)
    2654:	01012903          	lw	s2,16(sp)
    2658:	00c12983          	lw	s3,12(sp)
    265c:	fff00513          	li	a0,-1
    2660:	02010113          	addi	sp,sp,32
    2664:	00008067          	ret
    2668:	03c5a683          	lw	a3,60(a1)
    266c:	e6d048e3          	bgtz	a3,24dc <__sflush_r+0x44>
    2670:	00000513          	li	a0,0
    2674:	f55ff06f          	j	25c8 <__sflush_r+0x130>
    2678:	05042603          	lw	a2,80(s0)
    267c:	ea9ff06f          	j	2524 <__sflush_r+0x8c>
    2680:	00c41783          	lh	a5,12(s0)
    2684:	01042683          	lw	a3,16(s0)
    2688:	fffff737          	lui	a4,0xfffff
    268c:	7ff70713          	addi	a4,a4,2047 # fffff7ff <_end+0xffffb3a5>
    2690:	00e7f733          	and	a4,a5,a4
    2694:	00c7d793          	srli	a5,a5,0xc
    2698:	00e41623          	sh	a4,12(s0)
    269c:	00042223          	sw	zero,4(s0)
    26a0:	00d42023          	sw	a3,0(s0)
    26a4:	0017f793          	andi	a5,a5,1
    26a8:	ee078ee3          	beqz	a5,25a4 <__sflush_r+0x10c>
    26ac:	04a42823          	sw	a0,80(s0)
    26b0:	ef5ff06f          	j	25a4 <__sflush_r+0x10c>
    26b4:	0009a783          	lw	a5,0(s3)
    26b8:	e60780e3          	beqz	a5,2518 <__sflush_r+0x80>
    26bc:	01d00713          	li	a4,29
    26c0:	00e78663          	beq	a5,a4,26cc <__sflush_r+0x234>
    26c4:	01600713          	li	a4,22
    26c8:	f6e79ae3          	bne	a5,a4,263c <__sflush_r+0x1a4>
    26cc:	0099a023          	sw	s1,0(s3)
    26d0:	00000513          	li	a0,0
    26d4:	ef5ff06f          	j	25c8 <__sflush_r+0x130>
    26d8:	ec0696e3          	bnez	a3,25a4 <__sflush_r+0x10c>
    26dc:	04a42823          	sw	a0,80(s0)
    26e0:	ec5ff06f          	j	25a4 <__sflush_r+0x10c>

000026e4 <_fflush_r>:
    26e4:	fe010113          	addi	sp,sp,-32
    26e8:	00812c23          	sw	s0,24(sp)
    26ec:	00112e23          	sw	ra,28(sp)
    26f0:	00050413          	mv	s0,a0
    26f4:	00050663          	beqz	a0,2700 <_fflush_r+0x1c>
    26f8:	03852783          	lw	a5,56(a0)
    26fc:	02078063          	beqz	a5,271c <_fflush_r+0x38>
    2700:	00c59783          	lh	a5,12(a1)
    2704:	02079663          	bnez	a5,2730 <_fflush_r+0x4c>
    2708:	01c12083          	lw	ra,28(sp)
    270c:	01812403          	lw	s0,24(sp)
    2710:	00000513          	li	a0,0
    2714:	02010113          	addi	sp,sp,32
    2718:	00008067          	ret
    271c:	00b12623          	sw	a1,12(sp)
    2720:	964fe0ef          	jal	ra,884 <__sinit>
    2724:	00c12583          	lw	a1,12(sp)
    2728:	00c59783          	lh	a5,12(a1)
    272c:	fc078ee3          	beqz	a5,2708 <_fflush_r+0x24>
    2730:	00040513          	mv	a0,s0
    2734:	01812403          	lw	s0,24(sp)
    2738:	01c12083          	lw	ra,28(sp)
    273c:	02010113          	addi	sp,sp,32
    2740:	d59ff06f          	j	2498 <__sflush_r>

00002744 <fflush>:
    2744:	06050863          	beqz	a0,27b4 <fflush+0x70>
    2748:	fe010113          	addi	sp,sp,-32
    274c:	000037b7          	lui	a5,0x3
    2750:	00812c23          	sw	s0,24(sp)
    2754:	00050413          	mv	s0,a0
    2758:	5987a503          	lw	a0,1432(a5) # 3598 <_impure_ptr>
    275c:	00112e23          	sw	ra,28(sp)
    2760:	00050663          	beqz	a0,276c <fflush+0x28>
    2764:	03852783          	lw	a5,56(a0)
    2768:	02078a63          	beqz	a5,279c <fflush+0x58>
    276c:	00c41783          	lh	a5,12(s0)
    2770:	00079c63          	bnez	a5,2788 <fflush+0x44>
    2774:	01c12083          	lw	ra,28(sp)
    2778:	01812403          	lw	s0,24(sp)
    277c:	00000513          	li	a0,0
    2780:	02010113          	addi	sp,sp,32
    2784:	00008067          	ret
    2788:	00040593          	mv	a1,s0
    278c:	01812403          	lw	s0,24(sp)
    2790:	01c12083          	lw	ra,28(sp)
    2794:	02010113          	addi	sp,sp,32
    2798:	d01ff06f          	j	2498 <__sflush_r>
    279c:	00a12623          	sw	a0,12(sp)
    27a0:	8e4fe0ef          	jal	ra,884 <__sinit>
    27a4:	00c41783          	lh	a5,12(s0)
    27a8:	00c12503          	lw	a0,12(sp)
    27ac:	fc0784e3          	beqz	a5,2774 <fflush+0x30>
    27b0:	fd9ff06f          	j	2788 <fflush+0x44>
    27b4:	000037b7          	lui	a5,0x3
    27b8:	5847a503          	lw	a0,1412(a5) # 3584 <_global_impure_ptr>
    27bc:	000025b7          	lui	a1,0x2
    27c0:	6e458593          	addi	a1,a1,1764 # 26e4 <_fflush_r>
    27c4:	e94fe06f          	j	e58 <_fwalk_reent>

000027c8 <_malloc_trim_r>:
    27c8:	fe010113          	addi	sp,sp,-32
    27cc:	01312623          	sw	s3,12(sp)
    27d0:	000049b7          	lui	s3,0x4
    27d4:	00812c23          	sw	s0,24(sp)
    27d8:	00912a23          	sw	s1,20(sp)
    27dc:	01212823          	sw	s2,16(sp)
    27e0:	01412423          	sw	s4,8(sp)
    27e4:	00112e23          	sw	ra,28(sp)
    27e8:	00058a13          	mv	s4,a1
    27ec:	00050913          	mv	s2,a0
    27f0:	a2898993          	addi	s3,s3,-1496 # 3a28 <__malloc_av_>
    27f4:	a34ff0ef          	jal	ra,1a28 <__malloc_lock>
    27f8:	0089a703          	lw	a4,8(s3)
    27fc:	000017b7          	lui	a5,0x1
    2800:	fef78413          	addi	s0,a5,-17 # fef <_malloc_r+0xe3>
    2804:	00472483          	lw	s1,4(a4)
    2808:	ffc4f493          	andi	s1,s1,-4
    280c:	00848433          	add	s0,s1,s0
    2810:	41440433          	sub	s0,s0,s4
    2814:	00c45413          	srli	s0,s0,0xc
    2818:	fff40413          	addi	s0,s0,-1
    281c:	00c41413          	slli	s0,s0,0xc
    2820:	00f44e63          	blt	s0,a5,283c <_malloc_trim_r+0x74>
    2824:	00000593          	li	a1,0
    2828:	00090513          	mv	a0,s2
    282c:	f5cff0ef          	jal	ra,1f88 <_sbrk_r>
    2830:	0089a783          	lw	a5,8(s3)
    2834:	009787b3          	add	a5,a5,s1
    2838:	02f50863          	beq	a0,a5,2868 <_malloc_trim_r+0xa0>
    283c:	00090513          	mv	a0,s2
    2840:	9ecff0ef          	jal	ra,1a2c <__malloc_unlock>
    2844:	01c12083          	lw	ra,28(sp)
    2848:	01812403          	lw	s0,24(sp)
    284c:	01412483          	lw	s1,20(sp)
    2850:	01012903          	lw	s2,16(sp)
    2854:	00c12983          	lw	s3,12(sp)
    2858:	00812a03          	lw	s4,8(sp)
    285c:	00000513          	li	a0,0
    2860:	02010113          	addi	sp,sp,32
    2864:	00008067          	ret
    2868:	408005b3          	neg	a1,s0
    286c:	00090513          	mv	a0,s2
    2870:	f18ff0ef          	jal	ra,1f88 <_sbrk_r>
    2874:	fff00793          	li	a5,-1
    2878:	04f50a63          	beq	a0,a5,28cc <_malloc_trim_r+0x104>
    287c:	000037b7          	lui	a5,0x3
    2880:	5c078793          	addi	a5,a5,1472 # 35c0 <__malloc_current_mallinfo>
    2884:	0007a703          	lw	a4,0(a5)
    2888:	0089a683          	lw	a3,8(s3)
    288c:	408484b3          	sub	s1,s1,s0
    2890:	0014e493          	ori	s1,s1,1
    2894:	40870733          	sub	a4,a4,s0
    2898:	00090513          	mv	a0,s2
    289c:	0096a223          	sw	s1,4(a3)
    28a0:	00e7a023          	sw	a4,0(a5)
    28a4:	988ff0ef          	jal	ra,1a2c <__malloc_unlock>
    28a8:	01c12083          	lw	ra,28(sp)
    28ac:	01812403          	lw	s0,24(sp)
    28b0:	01412483          	lw	s1,20(sp)
    28b4:	01012903          	lw	s2,16(sp)
    28b8:	00c12983          	lw	s3,12(sp)
    28bc:	00812a03          	lw	s4,8(sp)
    28c0:	00100513          	li	a0,1
    28c4:	02010113          	addi	sp,sp,32
    28c8:	00008067          	ret
    28cc:	00000593          	li	a1,0
    28d0:	00090513          	mv	a0,s2
    28d4:	eb4ff0ef          	jal	ra,1f88 <_sbrk_r>
    28d8:	0089a703          	lw	a4,8(s3)
    28dc:	00f00693          	li	a3,15
    28e0:	40e507b3          	sub	a5,a0,a4
    28e4:	f4f6dce3          	bge	a3,a5,283c <_malloc_trim_r+0x74>
    28e8:	000036b7          	lui	a3,0x3
    28ec:	59c6a683          	lw	a3,1436(a3) # 359c <__malloc_sbrk_base>
    28f0:	0017e793          	ori	a5,a5,1
    28f4:	00f72223          	sw	a5,4(a4)
    28f8:	40d50533          	sub	a0,a0,a3
    28fc:	000036b7          	lui	a3,0x3
    2900:	5ca6a023          	sw	a0,1472(a3) # 35c0 <__malloc_current_mallinfo>
    2904:	f39ff06f          	j	283c <_malloc_trim_r+0x74>

00002908 <_free_r>:
    2908:	18058263          	beqz	a1,2a8c <_free_r+0x184>
    290c:	ff010113          	addi	sp,sp,-16
    2910:	00812423          	sw	s0,8(sp)
    2914:	00912223          	sw	s1,4(sp)
    2918:	00058413          	mv	s0,a1
    291c:	00050493          	mv	s1,a0
    2920:	00112623          	sw	ra,12(sp)
    2924:	904ff0ef          	jal	ra,1a28 <__malloc_lock>
    2928:	ffc42503          	lw	a0,-4(s0)
    292c:	ff840713          	addi	a4,s0,-8
    2930:	000045b7          	lui	a1,0x4
    2934:	ffe57793          	andi	a5,a0,-2
    2938:	00f70633          	add	a2,a4,a5
    293c:	a2858593          	addi	a1,a1,-1496 # 3a28 <__malloc_av_>
    2940:	00462683          	lw	a3,4(a2)
    2944:	0085a803          	lw	a6,8(a1)
    2948:	ffc6f693          	andi	a3,a3,-4
    294c:	1ac80263          	beq	a6,a2,2af0 <_free_r+0x1e8>
    2950:	00d62223          	sw	a3,4(a2)
    2954:	00157513          	andi	a0,a0,1
    2958:	00d60833          	add	a6,a2,a3
    295c:	0a051063          	bnez	a0,29fc <_free_r+0xf4>
    2960:	ff842303          	lw	t1,-8(s0)
    2964:	00482803          	lw	a6,4(a6)
    2968:	00004537          	lui	a0,0x4
    296c:	40670733          	sub	a4,a4,t1
    2970:	00872883          	lw	a7,8(a4)
    2974:	a3050513          	addi	a0,a0,-1488 # 3a30 <__malloc_av_+0x8>
    2978:	006787b3          	add	a5,a5,t1
    297c:	00187813          	andi	a6,a6,1
    2980:	14a88263          	beq	a7,a0,2ac4 <_free_r+0x1bc>
    2984:	00c72303          	lw	t1,12(a4)
    2988:	0068a623          	sw	t1,12(a7)
    298c:	01132423          	sw	a7,8(t1)
    2990:	1a080a63          	beqz	a6,2b44 <_free_r+0x23c>
    2994:	0017e693          	ori	a3,a5,1
    2998:	00d72223          	sw	a3,4(a4)
    299c:	00f62023          	sw	a5,0(a2)
    29a0:	1ff00693          	li	a3,511
    29a4:	06f6ec63          	bltu	a3,a5,2a1c <_free_r+0x114>
    29a8:	ff87f693          	andi	a3,a5,-8
    29ac:	00868693          	addi	a3,a3,8
    29b0:	0045a503          	lw	a0,4(a1)
    29b4:	00d586b3          	add	a3,a1,a3
    29b8:	0006a603          	lw	a2,0(a3)
    29bc:	0057d813          	srli	a6,a5,0x5
    29c0:	00100793          	li	a5,1
    29c4:	010797b3          	sll	a5,a5,a6
    29c8:	00a7e7b3          	or	a5,a5,a0
    29cc:	ff868513          	addi	a0,a3,-8
    29d0:	00a72623          	sw	a0,12(a4)
    29d4:	00c72423          	sw	a2,8(a4)
    29d8:	00f5a223          	sw	a5,4(a1)
    29dc:	00e6a023          	sw	a4,0(a3)
    29e0:	00e62623          	sw	a4,12(a2)
    29e4:	00812403          	lw	s0,8(sp)
    29e8:	00c12083          	lw	ra,12(sp)
    29ec:	00048513          	mv	a0,s1
    29f0:	00412483          	lw	s1,4(sp)
    29f4:	01010113          	addi	sp,sp,16
    29f8:	834ff06f          	j	1a2c <__malloc_unlock>
    29fc:	00482503          	lw	a0,4(a6)
    2a00:	00157513          	andi	a0,a0,1
    2a04:	08050663          	beqz	a0,2a90 <_free_r+0x188>
    2a08:	0017e693          	ori	a3,a5,1
    2a0c:	fed42e23          	sw	a3,-4(s0)
    2a10:	00f62023          	sw	a5,0(a2)
    2a14:	1ff00693          	li	a3,511
    2a18:	f8f6f8e3          	bgeu	a3,a5,29a8 <_free_r+0xa0>
    2a1c:	0097d693          	srli	a3,a5,0x9
    2a20:	00400613          	li	a2,4
    2a24:	12d66463          	bltu	a2,a3,2b4c <_free_r+0x244>
    2a28:	0067d693          	srli	a3,a5,0x6
    2a2c:	03968513          	addi	a0,a3,57
    2a30:	03868613          	addi	a2,a3,56
    2a34:	00351513          	slli	a0,a0,0x3
    2a38:	00a58533          	add	a0,a1,a0
    2a3c:	00052683          	lw	a3,0(a0)
    2a40:	ff850513          	addi	a0,a0,-8
    2a44:	00d51863          	bne	a0,a3,2a54 <_free_r+0x14c>
    2a48:	15c0006f          	j	2ba4 <_free_r+0x29c>
    2a4c:	0086a683          	lw	a3,8(a3)
    2a50:	00d50863          	beq	a0,a3,2a60 <_free_r+0x158>
    2a54:	0046a603          	lw	a2,4(a3)
    2a58:	ffc67613          	andi	a2,a2,-4
    2a5c:	fec7e8e3          	bltu	a5,a2,2a4c <_free_r+0x144>
    2a60:	00c6a503          	lw	a0,12(a3)
    2a64:	00a72623          	sw	a0,12(a4)
    2a68:	00d72423          	sw	a3,8(a4)
    2a6c:	00812403          	lw	s0,8(sp)
    2a70:	00e52423          	sw	a4,8(a0)
    2a74:	00c12083          	lw	ra,12(sp)
    2a78:	00048513          	mv	a0,s1
    2a7c:	00412483          	lw	s1,4(sp)
    2a80:	00e6a623          	sw	a4,12(a3)
    2a84:	01010113          	addi	sp,sp,16
    2a88:	fa5fe06f          	j	1a2c <__malloc_unlock>
    2a8c:	00008067          	ret
    2a90:	00004537          	lui	a0,0x4
    2a94:	00d787b3          	add	a5,a5,a3
    2a98:	a3050513          	addi	a0,a0,-1488 # 3a30 <__malloc_av_+0x8>
    2a9c:	00862683          	lw	a3,8(a2)
    2aa0:	0ea68063          	beq	a3,a0,2b80 <_free_r+0x278>
    2aa4:	00c62803          	lw	a6,12(a2)
    2aa8:	0017e513          	ori	a0,a5,1
    2aac:	00f70633          	add	a2,a4,a5
    2ab0:	0106a623          	sw	a6,12(a3)
    2ab4:	00d82423          	sw	a3,8(a6)
    2ab8:	00a72223          	sw	a0,4(a4)
    2abc:	00f62023          	sw	a5,0(a2)
    2ac0:	ee1ff06f          	j	29a0 <_free_r+0x98>
    2ac4:	14081063          	bnez	a6,2c04 <_free_r+0x2fc>
    2ac8:	00862583          	lw	a1,8(a2)
    2acc:	00c62603          	lw	a2,12(a2)
    2ad0:	00f686b3          	add	a3,a3,a5
    2ad4:	0016e793          	ori	a5,a3,1
    2ad8:	00c5a623          	sw	a2,12(a1)
    2adc:	00b62423          	sw	a1,8(a2)
    2ae0:	00f72223          	sw	a5,4(a4)
    2ae4:	00d70733          	add	a4,a4,a3
    2ae8:	00d72023          	sw	a3,0(a4)
    2aec:	ef9ff06f          	j	29e4 <_free_r+0xdc>
    2af0:	00157513          	andi	a0,a0,1
    2af4:	00d786b3          	add	a3,a5,a3
    2af8:	02051063          	bnez	a0,2b18 <_free_r+0x210>
    2afc:	ff842503          	lw	a0,-8(s0)
    2b00:	40a70733          	sub	a4,a4,a0
    2b04:	00c72783          	lw	a5,12(a4)
    2b08:	00872603          	lw	a2,8(a4)
    2b0c:	00a686b3          	add	a3,a3,a0
    2b10:	00f62623          	sw	a5,12(a2)
    2b14:	00c7a423          	sw	a2,8(a5)
    2b18:	000037b7          	lui	a5,0x3
    2b1c:	0016e613          	ori	a2,a3,1
    2b20:	5a07a783          	lw	a5,1440(a5) # 35a0 <__malloc_trim_threshold>
    2b24:	00c72223          	sw	a2,4(a4)
    2b28:	00e5a423          	sw	a4,8(a1)
    2b2c:	eaf6ece3          	bltu	a3,a5,29e4 <_free_r+0xdc>
    2b30:	000037b7          	lui	a5,0x3
    2b34:	5f07a583          	lw	a1,1520(a5) # 35f0 <__malloc_top_pad>
    2b38:	00048513          	mv	a0,s1
    2b3c:	c8dff0ef          	jal	ra,27c8 <_malloc_trim_r>
    2b40:	ea5ff06f          	j	29e4 <_free_r+0xdc>
    2b44:	00d787b3          	add	a5,a5,a3
    2b48:	f55ff06f          	j	2a9c <_free_r+0x194>
    2b4c:	01400613          	li	a2,20
    2b50:	02d67063          	bgeu	a2,a3,2b70 <_free_r+0x268>
    2b54:	05400613          	li	a2,84
    2b58:	06d66463          	bltu	a2,a3,2bc0 <_free_r+0x2b8>
    2b5c:	00c7d693          	srli	a3,a5,0xc
    2b60:	06f68513          	addi	a0,a3,111
    2b64:	06e68613          	addi	a2,a3,110
    2b68:	00351513          	slli	a0,a0,0x3
    2b6c:	ecdff06f          	j	2a38 <_free_r+0x130>
    2b70:	05c68513          	addi	a0,a3,92
    2b74:	05b68613          	addi	a2,a3,91
    2b78:	00351513          	slli	a0,a0,0x3
    2b7c:	ebdff06f          	j	2a38 <_free_r+0x130>
    2b80:	00e5aa23          	sw	a4,20(a1)
    2b84:	00e5a823          	sw	a4,16(a1)
    2b88:	0017e693          	ori	a3,a5,1
    2b8c:	00a72623          	sw	a0,12(a4)
    2b90:	00a72423          	sw	a0,8(a4)
    2b94:	00d72223          	sw	a3,4(a4)
    2b98:	00f70733          	add	a4,a4,a5
    2b9c:	00f72023          	sw	a5,0(a4)
    2ba0:	e45ff06f          	j	29e4 <_free_r+0xdc>
    2ba4:	0045a803          	lw	a6,4(a1)
    2ba8:	40265613          	srai	a2,a2,0x2
    2bac:	00100793          	li	a5,1
    2bb0:	00c797b3          	sll	a5,a5,a2
    2bb4:	0107e7b3          	or	a5,a5,a6
    2bb8:	00f5a223          	sw	a5,4(a1)
    2bbc:	ea9ff06f          	j	2a64 <_free_r+0x15c>
    2bc0:	15400613          	li	a2,340
    2bc4:	00d66c63          	bltu	a2,a3,2bdc <_free_r+0x2d4>
    2bc8:	00f7d693          	srli	a3,a5,0xf
    2bcc:	07868513          	addi	a0,a3,120
    2bd0:	07768613          	addi	a2,a3,119
    2bd4:	00351513          	slli	a0,a0,0x3
    2bd8:	e61ff06f          	j	2a38 <_free_r+0x130>
    2bdc:	55400613          	li	a2,1364
    2be0:	00d66c63          	bltu	a2,a3,2bf8 <_free_r+0x2f0>
    2be4:	0127d693          	srli	a3,a5,0x12
    2be8:	07d68513          	addi	a0,a3,125
    2bec:	07c68613          	addi	a2,a3,124
    2bf0:	00351513          	slli	a0,a0,0x3
    2bf4:	e45ff06f          	j	2a38 <_free_r+0x130>
    2bf8:	3f800513          	li	a0,1016
    2bfc:	07e00613          	li	a2,126
    2c00:	e39ff06f          	j	2a38 <_free_r+0x130>
    2c04:	0017e693          	ori	a3,a5,1
    2c08:	00d72223          	sw	a3,4(a4)
    2c0c:	00f62023          	sw	a5,0(a2)
    2c10:	dd5ff06f          	j	29e4 <_free_r+0xdc>

00002c14 <_lseek_r>:
    2c14:	ff010113          	addi	sp,sp,-16
    2c18:	00058713          	mv	a4,a1
    2c1c:	00812423          	sw	s0,8(sp)
    2c20:	00912223          	sw	s1,4(sp)
    2c24:	00060593          	mv	a1,a2
    2c28:	00050413          	mv	s0,a0
    2c2c:	000034b7          	lui	s1,0x3
    2c30:	00068613          	mv	a2,a3
    2c34:	00070513          	mv	a0,a4
    2c38:	00112623          	sw	ra,12(sp)
    2c3c:	5e04aa23          	sw	zero,1524(s1) # 35f4 <errno>
    2c40:	73c000ef          	jal	ra,337c <_lseek>
    2c44:	fff00793          	li	a5,-1
    2c48:	00f50c63          	beq	a0,a5,2c60 <_lseek_r+0x4c>
    2c4c:	00c12083          	lw	ra,12(sp)
    2c50:	00812403          	lw	s0,8(sp)
    2c54:	00412483          	lw	s1,4(sp)
    2c58:	01010113          	addi	sp,sp,16
    2c5c:	00008067          	ret
    2c60:	5f44a783          	lw	a5,1524(s1)
    2c64:	fe0784e3          	beqz	a5,2c4c <_lseek_r+0x38>
    2c68:	00c12083          	lw	ra,12(sp)
    2c6c:	00f42023          	sw	a5,0(s0)
    2c70:	00812403          	lw	s0,8(sp)
    2c74:	00412483          	lw	s1,4(sp)
    2c78:	01010113          	addi	sp,sp,16
    2c7c:	00008067          	ret

00002c80 <__smakebuf_r>:
    2c80:	00c59783          	lh	a5,12(a1)
    2c84:	f8010113          	addi	sp,sp,-128
    2c88:	06812c23          	sw	s0,120(sp)
    2c8c:	06112e23          	sw	ra,124(sp)
    2c90:	06912a23          	sw	s1,116(sp)
    2c94:	07212823          	sw	s2,112(sp)
    2c98:	07312623          	sw	s3,108(sp)
    2c9c:	07412423          	sw	s4,104(sp)
    2ca0:	0027f713          	andi	a4,a5,2
    2ca4:	00058413          	mv	s0,a1
    2ca8:	02070c63          	beqz	a4,2ce0 <__smakebuf_r+0x60>
    2cac:	04358793          	addi	a5,a1,67
    2cb0:	00f5a023          	sw	a5,0(a1)
    2cb4:	00f5a823          	sw	a5,16(a1)
    2cb8:	00100793          	li	a5,1
    2cbc:	00f5aa23          	sw	a5,20(a1)
    2cc0:	07c12083          	lw	ra,124(sp)
    2cc4:	07812403          	lw	s0,120(sp)
    2cc8:	07412483          	lw	s1,116(sp)
    2ccc:	07012903          	lw	s2,112(sp)
    2cd0:	06c12983          	lw	s3,108(sp)
    2cd4:	06812a03          	lw	s4,104(sp)
    2cd8:	08010113          	addi	sp,sp,128
    2cdc:	00008067          	ret
    2ce0:	00e59583          	lh	a1,14(a1)
    2ce4:	00050493          	mv	s1,a0
    2ce8:	0805ca63          	bltz	a1,2d7c <__smakebuf_r+0xfc>
    2cec:	00810613          	addi	a2,sp,8
    2cf0:	4b0000ef          	jal	ra,31a0 <_fstat_r>
    2cf4:	08054263          	bltz	a0,2d78 <__smakebuf_r+0xf8>
    2cf8:	00c12783          	lw	a5,12(sp)
    2cfc:	0000f937          	lui	s2,0xf
    2d00:	000019b7          	lui	s3,0x1
    2d04:	00f97933          	and	s2,s2,a5
    2d08:	ffffe7b7          	lui	a5,0xffffe
    2d0c:	00f90933          	add	s2,s2,a5
    2d10:	00193913          	seqz	s2,s2
    2d14:	40000a13          	li	s4,1024
    2d18:	80098993          	addi	s3,s3,-2048 # 800 <__sfp+0xc0>
    2d1c:	000a0593          	mv	a1,s4
    2d20:	00048513          	mv	a0,s1
    2d24:	9e8fe0ef          	jal	ra,f0c <_malloc_r>
    2d28:	00c41783          	lh	a5,12(s0)
    2d2c:	06050c63          	beqz	a0,2da4 <__smakebuf_r+0x124>
    2d30:	54000713          	li	a4,1344
    2d34:	02e4ae23          	sw	a4,60(s1)
    2d38:	0807e793          	ori	a5,a5,128
    2d3c:	00f41623          	sh	a5,12(s0)
    2d40:	00a42023          	sw	a0,0(s0)
    2d44:	00a42823          	sw	a0,16(s0)
    2d48:	01442a23          	sw	s4,20(s0)
    2d4c:	08091863          	bnez	s2,2ddc <__smakebuf_r+0x15c>
    2d50:	0137e7b3          	or	a5,a5,s3
    2d54:	07c12083          	lw	ra,124(sp)
    2d58:	00f41623          	sh	a5,12(s0)
    2d5c:	07812403          	lw	s0,120(sp)
    2d60:	07412483          	lw	s1,116(sp)
    2d64:	07012903          	lw	s2,112(sp)
    2d68:	06c12983          	lw	s3,108(sp)
    2d6c:	06812a03          	lw	s4,104(sp)
    2d70:	08010113          	addi	sp,sp,128
    2d74:	00008067          	ret
    2d78:	00c41783          	lh	a5,12(s0)
    2d7c:	0807f793          	andi	a5,a5,128
    2d80:	00000913          	li	s2,0
    2d84:	04078663          	beqz	a5,2dd0 <__smakebuf_r+0x150>
    2d88:	04000a13          	li	s4,64
    2d8c:	000a0593          	mv	a1,s4
    2d90:	00048513          	mv	a0,s1
    2d94:	978fe0ef          	jal	ra,f0c <_malloc_r>
    2d98:	00c41783          	lh	a5,12(s0)
    2d9c:	00000993          	li	s3,0
    2da0:	f80518e3          	bnez	a0,2d30 <__smakebuf_r+0xb0>
    2da4:	2007f713          	andi	a4,a5,512
    2da8:	f0071ce3          	bnez	a4,2cc0 <__smakebuf_r+0x40>
    2dac:	ffc7f793          	andi	a5,a5,-4
    2db0:	0027e793          	ori	a5,a5,2
    2db4:	04340713          	addi	a4,s0,67
    2db8:	00f41623          	sh	a5,12(s0)
    2dbc:	00100793          	li	a5,1
    2dc0:	00e42023          	sw	a4,0(s0)
    2dc4:	00e42823          	sw	a4,16(s0)
    2dc8:	00f42a23          	sw	a5,20(s0)
    2dcc:	ef5ff06f          	j	2cc0 <__smakebuf_r+0x40>
    2dd0:	40000a13          	li	s4,1024
    2dd4:	00000993          	li	s3,0
    2dd8:	f45ff06f          	j	2d1c <__smakebuf_r+0x9c>
    2ddc:	00e41583          	lh	a1,14(s0)
    2de0:	00048513          	mv	a0,s1
    2de4:	424000ef          	jal	ra,3208 <_isatty_r>
    2de8:	00051663          	bnez	a0,2df4 <__smakebuf_r+0x174>
    2dec:	00c41783          	lh	a5,12(s0)
    2df0:	f61ff06f          	j	2d50 <__smakebuf_r+0xd0>
    2df4:	00c45783          	lhu	a5,12(s0)
    2df8:	ffc7f793          	andi	a5,a5,-4
    2dfc:	0017e793          	ori	a5,a5,1
    2e00:	01079793          	slli	a5,a5,0x10
    2e04:	4107d793          	srai	a5,a5,0x10
    2e08:	f49ff06f          	j	2d50 <__smakebuf_r+0xd0>

00002e0c <__swhatbuf_r>:
    2e0c:	f9010113          	addi	sp,sp,-112
    2e10:	06812423          	sw	s0,104(sp)
    2e14:	00058413          	mv	s0,a1
    2e18:	00e59583          	lh	a1,14(a1)
    2e1c:	06912223          	sw	s1,100(sp)
    2e20:	07212023          	sw	s2,96(sp)
    2e24:	06112623          	sw	ra,108(sp)
    2e28:	00060493          	mv	s1,a2
    2e2c:	00068913          	mv	s2,a3
    2e30:	0405ca63          	bltz	a1,2e84 <__swhatbuf_r+0x78>
    2e34:	00810613          	addi	a2,sp,8
    2e38:	368000ef          	jal	ra,31a0 <_fstat_r>
    2e3c:	04054463          	bltz	a0,2e84 <__swhatbuf_r+0x78>
    2e40:	00c12703          	lw	a4,12(sp)
    2e44:	0000f7b7          	lui	a5,0xf
    2e48:	06c12083          	lw	ra,108(sp)
    2e4c:	00e7f7b3          	and	a5,a5,a4
    2e50:	ffffe737          	lui	a4,0xffffe
    2e54:	00e787b3          	add	a5,a5,a4
    2e58:	06812403          	lw	s0,104(sp)
    2e5c:	0017b793          	seqz	a5,a5
    2e60:	00f92023          	sw	a5,0(s2) # f000 <_end+0xaba6>
    2e64:	40000713          	li	a4,1024
    2e68:	00e4a023          	sw	a4,0(s1)
    2e6c:	00001537          	lui	a0,0x1
    2e70:	06412483          	lw	s1,100(sp)
    2e74:	06012903          	lw	s2,96(sp)
    2e78:	80050513          	addi	a0,a0,-2048 # 800 <__sfp+0xc0>
    2e7c:	07010113          	addi	sp,sp,112
    2e80:	00008067          	ret
    2e84:	00c45783          	lhu	a5,12(s0)
    2e88:	0807f793          	andi	a5,a5,128
    2e8c:	02078863          	beqz	a5,2ebc <__swhatbuf_r+0xb0>
    2e90:	06c12083          	lw	ra,108(sp)
    2e94:	06812403          	lw	s0,104(sp)
    2e98:	00000793          	li	a5,0
    2e9c:	00f92023          	sw	a5,0(s2)
    2ea0:	04000713          	li	a4,64
    2ea4:	00e4a023          	sw	a4,0(s1)
    2ea8:	06012903          	lw	s2,96(sp)
    2eac:	06412483          	lw	s1,100(sp)
    2eb0:	00000513          	li	a0,0
    2eb4:	07010113          	addi	sp,sp,112
    2eb8:	00008067          	ret
    2ebc:	06c12083          	lw	ra,108(sp)
    2ec0:	06812403          	lw	s0,104(sp)
    2ec4:	00f92023          	sw	a5,0(s2)
    2ec8:	40000713          	li	a4,1024
    2ecc:	00e4a023          	sw	a4,0(s1)
    2ed0:	06012903          	lw	s2,96(sp)
    2ed4:	06412483          	lw	s1,100(sp)
    2ed8:	00000513          	li	a0,0
    2edc:	07010113          	addi	sp,sp,112
    2ee0:	00008067          	ret

00002ee4 <_read_r>:
    2ee4:	ff010113          	addi	sp,sp,-16
    2ee8:	00058713          	mv	a4,a1
    2eec:	00812423          	sw	s0,8(sp)
    2ef0:	00912223          	sw	s1,4(sp)
    2ef4:	00060593          	mv	a1,a2
    2ef8:	00050413          	mv	s0,a0
    2efc:	000034b7          	lui	s1,0x3
    2f00:	00068613          	mv	a2,a3
    2f04:	00070513          	mv	a0,a4
    2f08:	00112623          	sw	ra,12(sp)
    2f0c:	5e04aa23          	sw	zero,1524(s1) # 35f4 <errno>
    2f10:	4b0000ef          	jal	ra,33c0 <_read>
    2f14:	fff00793          	li	a5,-1
    2f18:	00f50c63          	beq	a0,a5,2f30 <_read_r+0x4c>
    2f1c:	00c12083          	lw	ra,12(sp)
    2f20:	00812403          	lw	s0,8(sp)
    2f24:	00412483          	lw	s1,4(sp)
    2f28:	01010113          	addi	sp,sp,16
    2f2c:	00008067          	ret
    2f30:	5f44a783          	lw	a5,1524(s1)
    2f34:	fe0784e3          	beqz	a5,2f1c <_read_r+0x38>
    2f38:	00c12083          	lw	ra,12(sp)
    2f3c:	00f42023          	sw	a5,0(s0)
    2f40:	00812403          	lw	s0,8(sp)
    2f44:	00412483          	lw	s1,4(sp)
    2f48:	01010113          	addi	sp,sp,16
    2f4c:	00008067          	ret

00002f50 <cleanup_glue>:
    2f50:	fe010113          	addi	sp,sp,-32
    2f54:	01212823          	sw	s2,16(sp)
    2f58:	0005a903          	lw	s2,0(a1)
    2f5c:	00812c23          	sw	s0,24(sp)
    2f60:	00912a23          	sw	s1,20(sp)
    2f64:	00112e23          	sw	ra,28(sp)
    2f68:	01312623          	sw	s3,12(sp)
    2f6c:	01412423          	sw	s4,8(sp)
    2f70:	00058413          	mv	s0,a1
    2f74:	00050493          	mv	s1,a0
    2f78:	04090263          	beqz	s2,2fbc <cleanup_glue+0x6c>
    2f7c:	00092983          	lw	s3,0(s2)
    2f80:	02098863          	beqz	s3,2fb0 <cleanup_glue+0x60>
    2f84:	0009aa03          	lw	s4,0(s3)
    2f88:	000a0e63          	beqz	s4,2fa4 <cleanup_glue+0x54>
    2f8c:	000a2583          	lw	a1,0(s4)
    2f90:	00058463          	beqz	a1,2f98 <cleanup_glue+0x48>
    2f94:	fbdff0ef          	jal	ra,2f50 <cleanup_glue>
    2f98:	000a0593          	mv	a1,s4
    2f9c:	00048513          	mv	a0,s1
    2fa0:	969ff0ef          	jal	ra,2908 <_free_r>
    2fa4:	00098593          	mv	a1,s3
    2fa8:	00048513          	mv	a0,s1
    2fac:	95dff0ef          	jal	ra,2908 <_free_r>
    2fb0:	00090593          	mv	a1,s2
    2fb4:	00048513          	mv	a0,s1
    2fb8:	951ff0ef          	jal	ra,2908 <_free_r>
    2fbc:	00040593          	mv	a1,s0
    2fc0:	01812403          	lw	s0,24(sp)
    2fc4:	01c12083          	lw	ra,28(sp)
    2fc8:	01012903          	lw	s2,16(sp)
    2fcc:	00c12983          	lw	s3,12(sp)
    2fd0:	00812a03          	lw	s4,8(sp)
    2fd4:	00048513          	mv	a0,s1
    2fd8:	01412483          	lw	s1,20(sp)
    2fdc:	02010113          	addi	sp,sp,32
    2fe0:	929ff06f          	j	2908 <_free_r>

00002fe4 <_reclaim_reent>:
    2fe4:	000037b7          	lui	a5,0x3
    2fe8:	5987a783          	lw	a5,1432(a5) # 3598 <_impure_ptr>
    2fec:	10a78a63          	beq	a5,a0,3100 <_reclaim_reent+0x11c>
    2ff0:	04c52583          	lw	a1,76(a0)
    2ff4:	fe010113          	addi	sp,sp,-32
    2ff8:	00912a23          	sw	s1,20(sp)
    2ffc:	00112e23          	sw	ra,28(sp)
    3000:	00812c23          	sw	s0,24(sp)
    3004:	01212823          	sw	s2,16(sp)
    3008:	01312623          	sw	s3,12(sp)
    300c:	00050493          	mv	s1,a0
    3010:	04058063          	beqz	a1,3050 <_reclaim_reent+0x6c>
    3014:	00000913          	li	s2,0
    3018:	08000993          	li	s3,128
    301c:	012587b3          	add	a5,a1,s2
    3020:	0007a403          	lw	s0,0(a5)
    3024:	00040e63          	beqz	s0,3040 <_reclaim_reent+0x5c>
    3028:	00040593          	mv	a1,s0
    302c:	00042403          	lw	s0,0(s0)
    3030:	00048513          	mv	a0,s1
    3034:	8d5ff0ef          	jal	ra,2908 <_free_r>
    3038:	fe0418e3          	bnez	s0,3028 <_reclaim_reent+0x44>
    303c:	04c4a583          	lw	a1,76(s1)
    3040:	00490913          	addi	s2,s2,4
    3044:	fd391ce3          	bne	s2,s3,301c <_reclaim_reent+0x38>
    3048:	00048513          	mv	a0,s1
    304c:	8bdff0ef          	jal	ra,2908 <_free_r>
    3050:	0404a583          	lw	a1,64(s1)
    3054:	00058663          	beqz	a1,3060 <_reclaim_reent+0x7c>
    3058:	00048513          	mv	a0,s1
    305c:	8adff0ef          	jal	ra,2908 <_free_r>
    3060:	1484a403          	lw	s0,328(s1)
    3064:	02040063          	beqz	s0,3084 <_reclaim_reent+0xa0>
    3068:	14c48913          	addi	s2,s1,332
    306c:	01240c63          	beq	s0,s2,3084 <_reclaim_reent+0xa0>
    3070:	00040593          	mv	a1,s0
    3074:	00042403          	lw	s0,0(s0)
    3078:	00048513          	mv	a0,s1
    307c:	88dff0ef          	jal	ra,2908 <_free_r>
    3080:	fe8918e3          	bne	s2,s0,3070 <_reclaim_reent+0x8c>
    3084:	0544a583          	lw	a1,84(s1)
    3088:	00058663          	beqz	a1,3094 <_reclaim_reent+0xb0>
    308c:	00048513          	mv	a0,s1
    3090:	879ff0ef          	jal	ra,2908 <_free_r>
    3094:	0384a783          	lw	a5,56(s1)
    3098:	04078663          	beqz	a5,30e4 <_reclaim_reent+0x100>
    309c:	03c4a783          	lw	a5,60(s1)
    30a0:	00048513          	mv	a0,s1
    30a4:	000780e7          	jalr	a5
    30a8:	2e04a403          	lw	s0,736(s1)
    30ac:	02040c63          	beqz	s0,30e4 <_reclaim_reent+0x100>
    30b0:	00042583          	lw	a1,0(s0)
    30b4:	00058663          	beqz	a1,30c0 <_reclaim_reent+0xdc>
    30b8:	00048513          	mv	a0,s1
    30bc:	e95ff0ef          	jal	ra,2f50 <cleanup_glue>
    30c0:	00040593          	mv	a1,s0
    30c4:	01812403          	lw	s0,24(sp)
    30c8:	01c12083          	lw	ra,28(sp)
    30cc:	01012903          	lw	s2,16(sp)
    30d0:	00c12983          	lw	s3,12(sp)
    30d4:	00048513          	mv	a0,s1
    30d8:	01412483          	lw	s1,20(sp)
    30dc:	02010113          	addi	sp,sp,32
    30e0:	829ff06f          	j	2908 <_free_r>
    30e4:	01c12083          	lw	ra,28(sp)
    30e8:	01812403          	lw	s0,24(sp)
    30ec:	01412483          	lw	s1,20(sp)
    30f0:	01012903          	lw	s2,16(sp)
    30f4:	00c12983          	lw	s3,12(sp)
    30f8:	02010113          	addi	sp,sp,32
    30fc:	00008067          	ret
    3100:	00008067          	ret

00003104 <__register_exitproc>:
    3104:	000037b7          	lui	a5,0x3
    3108:	5847a703          	lw	a4,1412(a5) # 3584 <_global_impure_ptr>
    310c:	14872783          	lw	a5,328(a4) # ffffe148 <_end+0xffff9cee>
    3110:	04078c63          	beqz	a5,3168 <__register_exitproc+0x64>
    3114:	0047a703          	lw	a4,4(a5)
    3118:	01f00813          	li	a6,31
    311c:	06e84e63          	blt	a6,a4,3198 <__register_exitproc+0x94>
    3120:	00271813          	slli	a6,a4,0x2
    3124:	02050663          	beqz	a0,3150 <__register_exitproc+0x4c>
    3128:	01078333          	add	t1,a5,a6
    312c:	08c32423          	sw	a2,136(t1)
    3130:	1887a883          	lw	a7,392(a5)
    3134:	00100613          	li	a2,1
    3138:	00e61633          	sll	a2,a2,a4
    313c:	00c8e8b3          	or	a7,a7,a2
    3140:	1917a423          	sw	a7,392(a5)
    3144:	10d32423          	sw	a3,264(t1)
    3148:	00200693          	li	a3,2
    314c:	02d50463          	beq	a0,a3,3174 <__register_exitproc+0x70>
    3150:	00170713          	addi	a4,a4,1
    3154:	00e7a223          	sw	a4,4(a5)
    3158:	010787b3          	add	a5,a5,a6
    315c:	00b7a423          	sw	a1,8(a5)
    3160:	00000513          	li	a0,0
    3164:	00008067          	ret
    3168:	14c70793          	addi	a5,a4,332
    316c:	14f72423          	sw	a5,328(a4)
    3170:	fa5ff06f          	j	3114 <__register_exitproc+0x10>
    3174:	18c7a683          	lw	a3,396(a5)
    3178:	00170713          	addi	a4,a4,1
    317c:	00e7a223          	sw	a4,4(a5)
    3180:	00c6e6b3          	or	a3,a3,a2
    3184:	18d7a623          	sw	a3,396(a5)
    3188:	010787b3          	add	a5,a5,a6
    318c:	00b7a423          	sw	a1,8(a5)
    3190:	00000513          	li	a0,0
    3194:	00008067          	ret
    3198:	fff00513          	li	a0,-1
    319c:	00008067          	ret

000031a0 <_fstat_r>:
    31a0:	ff010113          	addi	sp,sp,-16
    31a4:	00058713          	mv	a4,a1
    31a8:	00812423          	sw	s0,8(sp)
    31ac:	00912223          	sw	s1,4(sp)
    31b0:	00050413          	mv	s0,a0
    31b4:	000034b7          	lui	s1,0x3
    31b8:	00060593          	mv	a1,a2
    31bc:	00070513          	mv	a0,a4
    31c0:	00112623          	sw	ra,12(sp)
    31c4:	5e04aa23          	sw	zero,1524(s1) # 35f4 <errno>
    31c8:	114000ef          	jal	ra,32dc <_fstat>
    31cc:	fff00793          	li	a5,-1
    31d0:	00f50c63          	beq	a0,a5,31e8 <_fstat_r+0x48>
    31d4:	00c12083          	lw	ra,12(sp)
    31d8:	00812403          	lw	s0,8(sp)
    31dc:	00412483          	lw	s1,4(sp)
    31e0:	01010113          	addi	sp,sp,16
    31e4:	00008067          	ret
    31e8:	5f44a783          	lw	a5,1524(s1)
    31ec:	fe0784e3          	beqz	a5,31d4 <_fstat_r+0x34>
    31f0:	00c12083          	lw	ra,12(sp)
    31f4:	00f42023          	sw	a5,0(s0)
    31f8:	00812403          	lw	s0,8(sp)
    31fc:	00412483          	lw	s1,4(sp)
    3200:	01010113          	addi	sp,sp,16
    3204:	00008067          	ret

00003208 <_isatty_r>:
    3208:	ff010113          	addi	sp,sp,-16
    320c:	00812423          	sw	s0,8(sp)
    3210:	00912223          	sw	s1,4(sp)
    3214:	00050413          	mv	s0,a0
    3218:	000034b7          	lui	s1,0x3
    321c:	00058513          	mv	a0,a1
    3220:	00112623          	sw	ra,12(sp)
    3224:	5e04aa23          	sw	zero,1524(s1) # 35f4 <errno>
    3228:	114000ef          	jal	ra,333c <_isatty>
    322c:	fff00793          	li	a5,-1
    3230:	00f50c63          	beq	a0,a5,3248 <_isatty_r+0x40>
    3234:	00c12083          	lw	ra,12(sp)
    3238:	00812403          	lw	s0,8(sp)
    323c:	00412483          	lw	s1,4(sp)
    3240:	01010113          	addi	sp,sp,16
    3244:	00008067          	ret
    3248:	5f44a783          	lw	a5,1524(s1)
    324c:	fe0784e3          	beqz	a5,3234 <_isatty_r+0x2c>
    3250:	00c12083          	lw	ra,12(sp)
    3254:	00f42023          	sw	a5,0(s0)
    3258:	00812403          	lw	s0,8(sp)
    325c:	00412483          	lw	s1,4(sp)
    3260:	01010113          	addi	sp,sp,16
    3264:	00008067          	ret

00003268 <_close>:
    3268:	ff010113          	addi	sp,sp,-16
    326c:	00112623          	sw	ra,12(sp)
    3270:	00812423          	sw	s0,8(sp)
    3274:	03900893          	li	a7,57
    3278:	00000073          	ecall
    327c:	00050413          	mv	s0,a0
    3280:	00054c63          	bltz	a0,3298 <_close+0x30>
    3284:	00c12083          	lw	ra,12(sp)
    3288:	00040513          	mv	a0,s0
    328c:	00812403          	lw	s0,8(sp)
    3290:	01010113          	addi	sp,sp,16
    3294:	00008067          	ret
    3298:	40800433          	neg	s0,s0
    329c:	2d0000ef          	jal	ra,356c <__errno>
    32a0:	00852023          	sw	s0,0(a0)
    32a4:	fff00413          	li	s0,-1
    32a8:	fddff06f          	j	3284 <_close+0x1c>

000032ac <_exit>:
    32ac:	05d00893          	li	a7,93
    32b0:	00000073          	ecall
    32b4:	00054463          	bltz	a0,32bc <_exit+0x10>
    32b8:	0000006f          	j	32b8 <_exit+0xc>
    32bc:	ff010113          	addi	sp,sp,-16
    32c0:	00812423          	sw	s0,8(sp)
    32c4:	00050413          	mv	s0,a0
    32c8:	00112623          	sw	ra,12(sp)
    32cc:	40800433          	neg	s0,s0
    32d0:	29c000ef          	jal	ra,356c <__errno>
    32d4:	00852023          	sw	s0,0(a0)
    32d8:	0000006f          	j	32d8 <_exit+0x2c>

000032dc <_fstat>:
    32dc:	f7010113          	addi	sp,sp,-144
    32e0:	08912223          	sw	s1,132(sp)
    32e4:	08112623          	sw	ra,140(sp)
    32e8:	00058493          	mv	s1,a1
    32ec:	08812423          	sw	s0,136(sp)
    32f0:	05000893          	li	a7,80
    32f4:	00010593          	mv	a1,sp
    32f8:	00000073          	ecall
    32fc:	00050413          	mv	s0,a0
    3300:	02054463          	bltz	a0,3328 <_fstat+0x4c>
    3304:	00048513          	mv	a0,s1
    3308:	00010593          	mv	a1,sp
    330c:	1b8000ef          	jal	ra,34c4 <_conv_stat>
    3310:	08c12083          	lw	ra,140(sp)
    3314:	00040513          	mv	a0,s0
    3318:	08812403          	lw	s0,136(sp)
    331c:	08412483          	lw	s1,132(sp)
    3320:	09010113          	addi	sp,sp,144
    3324:	00008067          	ret
    3328:	40800433          	neg	s0,s0
    332c:	240000ef          	jal	ra,356c <__errno>
    3330:	00852023          	sw	s0,0(a0)
    3334:	fff00413          	li	s0,-1
    3338:	fcdff06f          	j	3304 <_fstat+0x28>

0000333c <_isatty>:
    333c:	f9010113          	addi	sp,sp,-112
    3340:	00810593          	addi	a1,sp,8
    3344:	06112623          	sw	ra,108(sp)
    3348:	f95ff0ef          	jal	ra,32dc <_fstat>
    334c:	fff00793          	li	a5,-1
    3350:	00f50e63          	beq	a0,a5,336c <_isatty+0x30>
    3354:	00c12503          	lw	a0,12(sp)
    3358:	06c12083          	lw	ra,108(sp)
    335c:	00d55513          	srli	a0,a0,0xd
    3360:	00157513          	andi	a0,a0,1
    3364:	07010113          	addi	sp,sp,112
    3368:	00008067          	ret
    336c:	06c12083          	lw	ra,108(sp)
    3370:	00000513          	li	a0,0
    3374:	07010113          	addi	sp,sp,112
    3378:	00008067          	ret

0000337c <_lseek>:
    337c:	ff010113          	addi	sp,sp,-16
    3380:	00112623          	sw	ra,12(sp)
    3384:	00812423          	sw	s0,8(sp)
    3388:	03e00893          	li	a7,62
    338c:	00000073          	ecall
    3390:	00050413          	mv	s0,a0
    3394:	00054c63          	bltz	a0,33ac <_lseek+0x30>
    3398:	00c12083          	lw	ra,12(sp)
    339c:	00040513          	mv	a0,s0
    33a0:	00812403          	lw	s0,8(sp)
    33a4:	01010113          	addi	sp,sp,16
    33a8:	00008067          	ret
    33ac:	40800433          	neg	s0,s0
    33b0:	1bc000ef          	jal	ra,356c <__errno>
    33b4:	00852023          	sw	s0,0(a0)
    33b8:	fff00413          	li	s0,-1
    33bc:	fddff06f          	j	3398 <_lseek+0x1c>

000033c0 <_read>:
    33c0:	ff010113          	addi	sp,sp,-16
    33c4:	00112623          	sw	ra,12(sp)
    33c8:	00812423          	sw	s0,8(sp)
    33cc:	03f00893          	li	a7,63
    33d0:	00000073          	ecall
    33d4:	00050413          	mv	s0,a0
    33d8:	00054c63          	bltz	a0,33f0 <_read+0x30>
    33dc:	00c12083          	lw	ra,12(sp)
    33e0:	00040513          	mv	a0,s0
    33e4:	00812403          	lw	s0,8(sp)
    33e8:	01010113          	addi	sp,sp,16
    33ec:	00008067          	ret
    33f0:	40800433          	neg	s0,s0
    33f4:	178000ef          	jal	ra,356c <__errno>
    33f8:	00852023          	sw	s0,0(a0)
    33fc:	fff00413          	li	s0,-1
    3400:	fddff06f          	j	33dc <_read+0x1c>

00003404 <_sbrk>:
    3404:	000036b7          	lui	a3,0x3
    3408:	5f86a703          	lw	a4,1528(a3) # 35f8 <heap_end.0>
    340c:	ff010113          	addi	sp,sp,-16
    3410:	00112623          	sw	ra,12(sp)
    3414:	00050793          	mv	a5,a0
    3418:	02071063          	bnez	a4,3438 <_sbrk+0x34>
    341c:	0d600893          	li	a7,214
    3420:	00000513          	li	a0,0
    3424:	00000073          	ecall
    3428:	fff00613          	li	a2,-1
    342c:	00050713          	mv	a4,a0
    3430:	02c50a63          	beq	a0,a2,3464 <_sbrk+0x60>
    3434:	5ea6ac23          	sw	a0,1528(a3)
    3438:	0d600893          	li	a7,214
    343c:	00e78533          	add	a0,a5,a4
    3440:	00000073          	ecall
    3444:	5f86a703          	lw	a4,1528(a3)
    3448:	00e787b3          	add	a5,a5,a4
    344c:	00f51c63          	bne	a0,a5,3464 <_sbrk+0x60>
    3450:	00c12083          	lw	ra,12(sp)
    3454:	5ea6ac23          	sw	a0,1528(a3)
    3458:	00070513          	mv	a0,a4
    345c:	01010113          	addi	sp,sp,16
    3460:	00008067          	ret
    3464:	108000ef          	jal	ra,356c <__errno>
    3468:	00c12083          	lw	ra,12(sp)
    346c:	00c00793          	li	a5,12
    3470:	00f52023          	sw	a5,0(a0)
    3474:	fff00513          	li	a0,-1
    3478:	01010113          	addi	sp,sp,16
    347c:	00008067          	ret

00003480 <_write>:
    3480:	ff010113          	addi	sp,sp,-16
    3484:	00112623          	sw	ra,12(sp)
    3488:	00812423          	sw	s0,8(sp)
    348c:	04000893          	li	a7,64
    3490:	00000073          	ecall
    3494:	00050413          	mv	s0,a0
    3498:	00054c63          	bltz	a0,34b0 <_write+0x30>
    349c:	00c12083          	lw	ra,12(sp)
    34a0:	00040513          	mv	a0,s0
    34a4:	00812403          	lw	s0,8(sp)
    34a8:	01010113          	addi	sp,sp,16
    34ac:	00008067          	ret
    34b0:	40800433          	neg	s0,s0
    34b4:	0b8000ef          	jal	ra,356c <__errno>
    34b8:	00852023          	sw	s0,0(a0)
    34bc:	fff00413          	li	s0,-1
    34c0:	fddff06f          	j	349c <_write+0x1c>

000034c4 <_conv_stat>:
    34c4:	0185d703          	lhu	a4,24(a1)
    34c8:	0145d783          	lhu	a5,20(a1)
    34cc:	ff010113          	addi	sp,sp,-16
    34d0:	01c5a283          	lw	t0,28(a1)
    34d4:	0205af83          	lw	t6,32(a1)
    34d8:	0305af03          	lw	t5,48(a1)
    34dc:	0405ae83          	lw	t4,64(a1)
    34e0:	0385ae03          	lw	t3,56(a1)
    34e4:	0485a303          	lw	t1,72(a1)
    34e8:	04c5a383          	lw	t2,76(a1)
    34ec:	0585a803          	lw	a6,88(a1)
    34f0:	05c5a883          	lw	a7,92(a1)
    34f4:	00812623          	sw	s0,12(sp)
    34f8:	00912423          	sw	s1,8(sp)
    34fc:	0105a403          	lw	s0,16(a1)
    3500:	0085a483          	lw	s1,8(a1)
    3504:	01212223          	sw	s2,4(sp)
    3508:	0005a903          	lw	s2,0(a1)
    350c:	0685a603          	lw	a2,104(a1)
    3510:	01071713          	slli	a4,a4,0x10
    3514:	00e7e7b3          	or	a5,a5,a4
    3518:	06c5a683          	lw	a3,108(a1)
    351c:	01251023          	sh	s2,0(a0)
    3520:	00951123          	sh	s1,2(a0)
    3524:	00852223          	sw	s0,4(a0)
    3528:	00f52423          	sw	a5,8(a0)
    352c:	00551623          	sh	t0,12(a0)
    3530:	01f51723          	sh	t6,14(a0)
    3534:	01e52823          	sw	t5,16(a0)
    3538:	05d52623          	sw	t4,76(a0)
    353c:	05c52423          	sw	t3,72(a0)
    3540:	00652c23          	sw	t1,24(a0)
    3544:	00752e23          	sw	t2,28(a0)
    3548:	03052423          	sw	a6,40(a0)
    354c:	03152623          	sw	a7,44(a0)
    3550:	02c52c23          	sw	a2,56(a0)
    3554:	00c12403          	lw	s0,12(sp)
    3558:	02d52e23          	sw	a3,60(a0)
    355c:	00812483          	lw	s1,8(sp)
    3560:	00412903          	lw	s2,4(sp)
    3564:	01010113          	addi	sp,sp,16
    3568:	00008067          	ret

0000356c <__errno>:
    356c:	000037b7          	lui	a5,0x3
    3570:	5987a503          	lw	a0,1432(a5) # 3598 <_impure_ptr>
    3574:	00008067          	ret
    3578:	6548                	flw	fa0,12(a0)
    357a:	6c6c                	flw	fa1,92(s0)
    357c:	0000216f          	jal	sp,557c <_end+0x1122>
    3580:	000a                	c.slli	zero,0x2
	...

00003584 <_global_impure_ptr>:
    3584:	3600 0000                                   .6..
