
/home/iman/gRV/CRV2/ta/bin/helloR:     file format elf32-littleriscv


Disassembly of section .text:

00010094 <exit>:
   10094:	ff010113          	addi	x2,x2,-16
   10098:	00000593          	addi	x11,x0,0
   1009c:	00812423          	sw	x8,8(x2)
   100a0:	00112623          	sw	x1,12(x2)
   100a4:	00050413          	addi	x8,x10,0
   100a8:	3f8000ef          	jal	x1,104a0 <__call_exitprocs>
   100ac:	0301a503          	lw	x10,48(x3) # 14dd0 <_global_impure_ptr>
   100b0:	03c52783          	lw	x15,60(x10)
   100b4:	00078463          	beq	x15,x0,100bc <exit+0x28>
   100b8:	000780e7          	jalr	x1,0(x15)
   100bc:	00040513          	addi	x10,x8,0
   100c0:	1fc030ef          	jal	x1,132bc <_exit>

000100c4 <register_fini>:
   100c4:	00000793          	addi	x15,x0,0
   100c8:	00078863          	beq	x15,x0,100d8 <register_fini+0x14>
   100cc:	00011537          	lui	x10,0x11
   100d0:	94850513          	addi	x10,x10,-1720 # 10948 <__libc_fini_array>
   100d4:	2880206f          	jal	x0,1235c <atexit>
   100d8:	00008067          	jalr	x0,0(x1)

000100dc <_start>:
   100dc:	00005197          	auipc	x3,0x5
   100e0:	cc418193          	addi	x3,x3,-828 # 14da0 <__global_pointer$>
   100e4:	04418513          	addi	x10,x3,68 # 14de4 <__malloc_max_total_mem>
   100e8:	09c18613          	addi	x12,x3,156 # 14e3c <__BSS_END__>
   100ec:	40a60633          	sub	x12,x12,x10
   100f0:	00000593          	addi	x11,x0,0
   100f4:	168000ef          	jal	x1,1025c <memset>
   100f8:	00002517          	auipc	x10,0x2
   100fc:	26450513          	addi	x10,x10,612 # 1235c <atexit>
   10100:	00050863          	beq	x10,x0,10110 <_start+0x34>
   10104:	00001517          	auipc	x10,0x1
   10108:	84450513          	addi	x10,x10,-1980 # 10948 <__libc_fini_array>
   1010c:	250020ef          	jal	x1,1235c <atexit>
   10110:	0b0000ef          	jal	x1,101c0 <__libc_init_array>
   10114:	00012503          	lw	x10,0(x2)
   10118:	00410593          	addi	x11,x2,4
   1011c:	00000613          	addi	x12,x0,0
   10120:	06c000ef          	jal	x1,1018c <main>
   10124:	f71ff06f          	jal	x0,10094 <exit>

00010128 <__do_global_dtors_aux>:
   10128:	ff010113          	addi	x2,x2,-16
   1012c:	00812423          	sw	x8,8(x2)
   10130:	0581c783          	lbu	x15,88(x3) # 14df8 <completed.1>
   10134:	00112623          	sw	x1,12(x2)
   10138:	02079263          	bne	x15,x0,1015c <__do_global_dtors_aux+0x34>
   1013c:	00000793          	addi	x15,x0,0
   10140:	00078a63          	beq	x15,x0,10154 <__do_global_dtors_aux+0x2c>
   10144:	00014537          	lui	x10,0x14
   10148:	58c50513          	addi	x10,x10,1420 # 1458c <__FRAME_END__>
   1014c:	00000097          	auipc	x1,0x0
   10150:	000000e7          	jalr	x1,0(x0) # 0 <exit-0x10094>
   10154:	00100793          	addi	x15,x0,1
   10158:	04f18c23          	sb	x15,88(x3) # 14df8 <completed.1>
   1015c:	00c12083          	lw	x1,12(x2)
   10160:	00812403          	lw	x8,8(x2)
   10164:	01010113          	addi	x2,x2,16
   10168:	00008067          	jalr	x0,0(x1) # 1014c <__do_global_dtors_aux+0x24>

0001016c <frame_dummy>:
   1016c:	00000793          	addi	x15,x0,0
   10170:	00078c63          	beq	x15,x0,10188 <frame_dummy+0x1c>
   10174:	00014537          	lui	x10,0x14
   10178:	05c18593          	addi	x11,x3,92 # 14dfc <object.0>
   1017c:	58c50513          	addi	x10,x10,1420 # 1458c <__FRAME_END__>
   10180:	00000317          	auipc	x6,0x0
   10184:	00000067          	jalr	x0,0(x0) # 0 <exit-0x10094>
   10188:	00008067          	jalr	x0,0(x1)

0001018c <main>:
   1018c:	ff010113          	addi	x2,x2,-16
   10190:	00112623          	sw	x1,12(x2)
   10194:	00812423          	sw	x8,8(x2)
   10198:	01010413          	addi	x8,x2,16
   1019c:	000137b7          	lui	x15,0x13
   101a0:	58078513          	addi	x10,x15,1408 # 13580 <__errno+0x8>
   101a4:	264000ef          	jal	x1,10408 <puts>
   101a8:	00000793          	addi	x15,x0,0
   101ac:	00078513          	addi	x10,x15,0
   101b0:	00c12083          	lw	x1,12(x2)
   101b4:	00812403          	lw	x8,8(x2)
   101b8:	01010113          	addi	x2,x2,16
   101bc:	00008067          	jalr	x0,0(x1)

000101c0 <__libc_init_array>:
   101c0:	ff010113          	addi	x2,x2,-16
   101c4:	00812423          	sw	x8,8(x2)
   101c8:	000147b7          	lui	x15,0x14
   101cc:	00014437          	lui	x8,0x14
   101d0:	01212023          	sw	x18,0(x2)
   101d4:	59078793          	addi	x15,x15,1424 # 14590 <__init_array_start>
   101d8:	59040713          	addi	x14,x8,1424 # 14590 <__init_array_start>
   101dc:	00112623          	sw	x1,12(x2)
   101e0:	00912223          	sw	x9,4(x2)
   101e4:	40e78933          	sub	x18,x15,x14
   101e8:	02e78263          	beq	x15,x14,1020c <__libc_init_array+0x4c>
   101ec:	40295913          	srai	x18,x18,0x2
   101f0:	59040413          	addi	x8,x8,1424
   101f4:	00000493          	addi	x9,x0,0
   101f8:	00042783          	lw	x15,0(x8)
   101fc:	00148493          	addi	x9,x9,1
   10200:	00440413          	addi	x8,x8,4
   10204:	000780e7          	jalr	x1,0(x15)
   10208:	ff24e8e3          	bltu	x9,x18,101f8 <__libc_init_array+0x38>
   1020c:	00014437          	lui	x8,0x14
   10210:	000147b7          	lui	x15,0x14
   10214:	59878793          	addi	x15,x15,1432 # 14598 <__do_global_dtors_aux_fini_array_entry>
   10218:	59040713          	addi	x14,x8,1424 # 14590 <__init_array_start>
   1021c:	40e78933          	sub	x18,x15,x14
   10220:	40295913          	srai	x18,x18,0x2
   10224:	02e78063          	beq	x15,x14,10244 <__libc_init_array+0x84>
   10228:	59040413          	addi	x8,x8,1424
   1022c:	00000493          	addi	x9,x0,0
   10230:	00042783          	lw	x15,0(x8)
   10234:	00148493          	addi	x9,x9,1
   10238:	00440413          	addi	x8,x8,4
   1023c:	000780e7          	jalr	x1,0(x15)
   10240:	ff24e8e3          	bltu	x9,x18,10230 <__libc_init_array+0x70>
   10244:	00c12083          	lw	x1,12(x2)
   10248:	00812403          	lw	x8,8(x2)
   1024c:	00412483          	lw	x9,4(x2)
   10250:	00012903          	lw	x18,0(x2)
   10254:	01010113          	addi	x2,x2,16
   10258:	00008067          	jalr	x0,0(x1)

0001025c <memset>:
   1025c:	00f00313          	addi	x6,x0,15
   10260:	00050713          	addi	x14,x10,0
   10264:	02c37e63          	bgeu	x6,x12,102a0 <memset+0x44>
   10268:	00f77793          	andi	x15,x14,15
   1026c:	0a079063          	bne	x15,x0,1030c <memset+0xb0>
   10270:	08059263          	bne	x11,x0,102f4 <memset+0x98>
   10274:	ff067693          	andi	x13,x12,-16
   10278:	00f67613          	andi	x12,x12,15
   1027c:	00e686b3          	add	x13,x13,x14
   10280:	00b72023          	sw	x11,0(x14)
   10284:	00b72223          	sw	x11,4(x14)
   10288:	00b72423          	sw	x11,8(x14)
   1028c:	00b72623          	sw	x11,12(x14)
   10290:	01070713          	addi	x14,x14,16
   10294:	fed766e3          	bltu	x14,x13,10280 <memset+0x24>
   10298:	00061463          	bne	x12,x0,102a0 <memset+0x44>
   1029c:	00008067          	jalr	x0,0(x1)
   102a0:	40c306b3          	sub	x13,x6,x12
   102a4:	00269693          	slli	x13,x13,0x2
   102a8:	00000297          	auipc	x5,0x0
   102ac:	005686b3          	add	x13,x13,x5
   102b0:	00c68067          	jalr	x0,12(x13)
   102b4:	00b70723          	sb	x11,14(x14)
   102b8:	00b706a3          	sb	x11,13(x14)
   102bc:	00b70623          	sb	x11,12(x14)
   102c0:	00b705a3          	sb	x11,11(x14)
   102c4:	00b70523          	sb	x11,10(x14)
   102c8:	00b704a3          	sb	x11,9(x14)
   102cc:	00b70423          	sb	x11,8(x14)
   102d0:	00b703a3          	sb	x11,7(x14)
   102d4:	00b70323          	sb	x11,6(x14)
   102d8:	00b702a3          	sb	x11,5(x14)
   102dc:	00b70223          	sb	x11,4(x14)
   102e0:	00b701a3          	sb	x11,3(x14)
   102e4:	00b70123          	sb	x11,2(x14)
   102e8:	00b700a3          	sb	x11,1(x14)
   102ec:	00b70023          	sb	x11,0(x14)
   102f0:	00008067          	jalr	x0,0(x1)
   102f4:	0ff5f593          	andi	x11,x11,255
   102f8:	00859693          	slli	x13,x11,0x8
   102fc:	00d5e5b3          	or	x11,x11,x13
   10300:	01059693          	slli	x13,x11,0x10
   10304:	00d5e5b3          	or	x11,x11,x13
   10308:	f6dff06f          	jal	x0,10274 <memset+0x18>
   1030c:	00279693          	slli	x13,x15,0x2
   10310:	00000297          	auipc	x5,0x0
   10314:	005686b3          	add	x13,x13,x5
   10318:	00008293          	addi	x5,x1,0
   1031c:	fa0680e7          	jalr	x1,-96(x13)
   10320:	00028093          	addi	x1,x5,0 # 10310 <memset+0xb4>
   10324:	ff078793          	addi	x15,x15,-16
   10328:	40f70733          	sub	x14,x14,x15
   1032c:	00f60633          	add	x12,x12,x15
   10330:	f6c378e3          	bgeu	x6,x12,102a0 <memset+0x44>
   10334:	f3dff06f          	jal	x0,10270 <memset+0x14>

00010338 <_puts_r>:
   10338:	fc010113          	addi	x2,x2,-64
   1033c:	02812c23          	sw	x8,56(x2)
   10340:	00050413          	addi	x8,x10,0
   10344:	00058513          	addi	x10,x11,0
   10348:	02912a23          	sw	x9,52(x2)
   1034c:	02112e23          	sw	x1,60(x2)
   10350:	00058493          	addi	x9,x11,0
   10354:	0c0000ef          	jal	x1,10414 <strlen>
   10358:	000137b7          	lui	x15,0x13
   1035c:	58878793          	addi	x15,x15,1416 # 13588 <__errno+0x10>
   10360:	02f12423          	sw	x15,40(x2)
   10364:	00100793          	addi	x15,x0,1
   10368:	02f12623          	sw	x15,44(x2)
   1036c:	03842703          	lw	x14,56(x8)
   10370:	02010793          	addi	x15,x2,32
   10374:	00150693          	addi	x13,x10,1
   10378:	00f12a23          	sw	x15,20(x2)
   1037c:	00200793          	addi	x15,x0,2
   10380:	02912023          	sw	x9,32(x2)
   10384:	02a12223          	sw	x10,36(x2)
   10388:	00d12e23          	sw	x13,28(x2)
   1038c:	00f12c23          	sw	x15,24(x2)
   10390:	00842583          	lw	x11,8(x8)
   10394:	06070063          	beq	x14,x0,103f4 <_puts_r+0xbc>
   10398:	00c59783          	lh	x15,12(x11)
   1039c:	01279713          	slli	x14,x15,0x12
   103a0:	02074263          	blt	x14,x0,103c4 <_puts_r+0x8c>
   103a4:	0645a703          	lw	x14,100(x11)
   103a8:	000026b7          	lui	x13,0x2
   103ac:	00d7e7b3          	or	x15,x15,x13
   103b0:	ffffe6b7          	lui	x13,0xffffe
   103b4:	fff68693          	addi	x13,x13,-1 # ffffdfff <__BSS_END__+0xfffe91c3>
   103b8:	00d77733          	and	x14,x14,x13
   103bc:	00f59623          	sh	x15,12(x11)
   103c0:	06e5a223          	sw	x14,100(x11)
   103c4:	01410613          	addi	x12,x2,20
   103c8:	00040513          	addi	x10,x8,0
   103cc:	5d8000ef          	jal	x1,109a4 <__sfvwrite_r>
   103d0:	03c12083          	lw	x1,60(x2)
   103d4:	03812403          	lw	x8,56(x2)
   103d8:	00153513          	sltiu	x10,x10,1
   103dc:	40a00533          	sub	x10,x0,x10
   103e0:	00b57513          	andi	x10,x10,11
   103e4:	03412483          	lw	x9,52(x2)
   103e8:	fff50513          	addi	x10,x10,-1
   103ec:	04010113          	addi	x2,x2,64
   103f0:	00008067          	jalr	x0,0(x1)
   103f4:	00040513          	addi	x10,x8,0
   103f8:	00b12623          	sw	x11,12(x2)
   103fc:	50c000ef          	jal	x1,10908 <__sinit>
   10400:	00c12583          	lw	x11,12(x2)
   10404:	f95ff06f          	jal	x0,10398 <_puts_r+0x60>

00010408 <puts>:
   10408:	00050593          	addi	x11,x10,0
   1040c:	0381a503          	lw	x10,56(x3) # 14dd8 <_impure_ptr>
   10410:	f29ff06f          	jal	x0,10338 <_puts_r>

00010414 <strlen>:
   10414:	00357793          	andi	x15,x10,3
   10418:	00050713          	addi	x14,x10,0
   1041c:	04079c63          	bne	x15,x0,10474 <strlen+0x60>
   10420:	7f7f86b7          	lui	x13,0x7f7f8
   10424:	f7f68693          	addi	x13,x13,-129 # 7f7f7f7f <__BSS_END__+0x7f7e3143>
   10428:	fff00593          	addi	x11,x0,-1
   1042c:	00072603          	lw	x12,0(x14)
   10430:	00470713          	addi	x14,x14,4
   10434:	00d677b3          	and	x15,x12,x13
   10438:	00d787b3          	add	x15,x15,x13
   1043c:	00c7e7b3          	or	x15,x15,x12
   10440:	00d7e7b3          	or	x15,x15,x13
   10444:	feb784e3          	beq	x15,x11,1042c <strlen+0x18>
   10448:	ffc74683          	lbu	x13,-4(x14)
   1044c:	40a707b3          	sub	x15,x14,x10
   10450:	04068463          	beq	x13,x0,10498 <strlen+0x84>
   10454:	ffd74683          	lbu	x13,-3(x14)
   10458:	02068c63          	beq	x13,x0,10490 <strlen+0x7c>
   1045c:	ffe74503          	lbu	x10,-2(x14)
   10460:	00a03533          	sltu	x10,x0,x10
   10464:	00f50533          	add	x10,x10,x15
   10468:	ffe50513          	addi	x10,x10,-2
   1046c:	00008067          	jalr	x0,0(x1)
   10470:	fa0688e3          	beq	x13,x0,10420 <strlen+0xc>
   10474:	00074783          	lbu	x15,0(x14)
   10478:	00170713          	addi	x14,x14,1
   1047c:	00377693          	andi	x13,x14,3
   10480:	fe0798e3          	bne	x15,x0,10470 <strlen+0x5c>
   10484:	40a70733          	sub	x14,x14,x10
   10488:	fff70513          	addi	x10,x14,-1
   1048c:	00008067          	jalr	x0,0(x1)
   10490:	ffd78513          	addi	x10,x15,-3
   10494:	00008067          	jalr	x0,0(x1)
   10498:	ffc78513          	addi	x10,x15,-4
   1049c:	00008067          	jalr	x0,0(x1)

000104a0 <__call_exitprocs>:
   104a0:	fd010113          	addi	x2,x2,-48
   104a4:	01412c23          	sw	x20,24(x2)
   104a8:	0301aa03          	lw	x20,48(x3) # 14dd0 <_global_impure_ptr>
   104ac:	03212023          	sw	x18,32(x2)
   104b0:	02112623          	sw	x1,44(x2)
   104b4:	148a2903          	lw	x18,328(x20)
   104b8:	02812423          	sw	x8,40(x2)
   104bc:	02912223          	sw	x9,36(x2)
   104c0:	01312e23          	sw	x19,28(x2)
   104c4:	01512a23          	sw	x21,20(x2)
   104c8:	01612823          	sw	x22,16(x2)
   104cc:	01712623          	sw	x23,12(x2)
   104d0:	01812423          	sw	x24,8(x2)
   104d4:	04090063          	beq	x18,x0,10514 <__call_exitprocs+0x74>
   104d8:	00050b13          	addi	x22,x10,0
   104dc:	00058b93          	addi	x23,x11,0
   104e0:	00100a93          	addi	x21,x0,1
   104e4:	fff00993          	addi	x19,x0,-1
   104e8:	00492483          	lw	x9,4(x18)
   104ec:	fff48413          	addi	x8,x9,-1
   104f0:	02044263          	blt	x8,x0,10514 <__call_exitprocs+0x74>
   104f4:	00249493          	slli	x9,x9,0x2
   104f8:	009904b3          	add	x9,x18,x9
   104fc:	040b8463          	beq	x23,x0,10544 <__call_exitprocs+0xa4>
   10500:	1044a783          	lw	x15,260(x9)
   10504:	05778063          	beq	x15,x23,10544 <__call_exitprocs+0xa4>
   10508:	fff40413          	addi	x8,x8,-1
   1050c:	ffc48493          	addi	x9,x9,-4
   10510:	ff3416e3          	bne	x8,x19,104fc <__call_exitprocs+0x5c>
   10514:	02c12083          	lw	x1,44(x2)
   10518:	02812403          	lw	x8,40(x2)
   1051c:	02412483          	lw	x9,36(x2)
   10520:	02012903          	lw	x18,32(x2)
   10524:	01c12983          	lw	x19,28(x2)
   10528:	01812a03          	lw	x20,24(x2)
   1052c:	01412a83          	lw	x21,20(x2)
   10530:	01012b03          	lw	x22,16(x2)
   10534:	00c12b83          	lw	x23,12(x2)
   10538:	00812c03          	lw	x24,8(x2)
   1053c:	03010113          	addi	x2,x2,48
   10540:	00008067          	jalr	x0,0(x1)
   10544:	00492783          	lw	x15,4(x18)
   10548:	0044a683          	lw	x13,4(x9)
   1054c:	fff78793          	addi	x15,x15,-1
   10550:	04878e63          	beq	x15,x8,105ac <__call_exitprocs+0x10c>
   10554:	0004a223          	sw	x0,4(x9)
   10558:	fa0688e3          	beq	x13,x0,10508 <__call_exitprocs+0x68>
   1055c:	18892783          	lw	x15,392(x18)
   10560:	008a9733          	sll	x14,x21,x8
   10564:	00492c03          	lw	x24,4(x18)
   10568:	00f777b3          	and	x15,x14,x15
   1056c:	02079263          	bne	x15,x0,10590 <__call_exitprocs+0xf0>
   10570:	000680e7          	jalr	x1,0(x13)
   10574:	00492703          	lw	x14,4(x18)
   10578:	148a2783          	lw	x15,328(x20)
   1057c:	01871463          	bne	x14,x24,10584 <__call_exitprocs+0xe4>
   10580:	f92784e3          	beq	x15,x18,10508 <__call_exitprocs+0x68>
   10584:	f80788e3          	beq	x15,x0,10514 <__call_exitprocs+0x74>
   10588:	00078913          	addi	x18,x15,0
   1058c:	f5dff06f          	jal	x0,104e8 <__call_exitprocs+0x48>
   10590:	18c92783          	lw	x15,396(x18)
   10594:	0844a583          	lw	x11,132(x9)
   10598:	00f77733          	and	x14,x14,x15
   1059c:	00071c63          	bne	x14,x0,105b4 <__call_exitprocs+0x114>
   105a0:	000b0513          	addi	x10,x22,0
   105a4:	000680e7          	jalr	x1,0(x13)
   105a8:	fcdff06f          	jal	x0,10574 <__call_exitprocs+0xd4>
   105ac:	00892223          	sw	x8,4(x18)
   105b0:	fa9ff06f          	jal	x0,10558 <__call_exitprocs+0xb8>
   105b4:	00058513          	addi	x10,x11,0
   105b8:	000680e7          	jalr	x1,0(x13)
   105bc:	fb9ff06f          	jal	x0,10574 <__call_exitprocs+0xd4>

000105c0 <__fp_lock>:
   105c0:	00000513          	addi	x10,x0,0
   105c4:	00008067          	jalr	x0,0(x1)

000105c8 <_cleanup_r>:
   105c8:	000125b7          	lui	x11,0x12
   105cc:	3cc58593          	addi	x11,x11,972 # 123cc <_fclose_r>
   105d0:	1150006f          	jal	x0,10ee4 <_fwalk_reent>

000105d4 <__fp_unlock>:
   105d4:	00000513          	addi	x10,x0,0
   105d8:	00008067          	jalr	x0,0(x1)

000105dc <__sinit.part.0>:
   105dc:	fe010113          	addi	x2,x2,-32
   105e0:	000107b7          	lui	x15,0x10
   105e4:	00112e23          	sw	x1,28(x2)
   105e8:	00812c23          	sw	x8,24(x2)
   105ec:	00912a23          	sw	x9,20(x2)
   105f0:	01212823          	sw	x18,16(x2)
   105f4:	01312623          	sw	x19,12(x2)
   105f8:	01412423          	sw	x20,8(x2)
   105fc:	01512223          	sw	x21,4(x2)
   10600:	01612023          	sw	x22,0(x2)
   10604:	00452403          	lw	x8,4(x10)
   10608:	5c878793          	addi	x15,x15,1480 # 105c8 <_cleanup_r>
   1060c:	02f52e23          	sw	x15,60(x10)
   10610:	2ec50713          	addi	x14,x10,748
   10614:	00300793          	addi	x15,x0,3
   10618:	2ee52423          	sw	x14,744(x10)
   1061c:	2ef52223          	sw	x15,740(x10)
   10620:	2e052023          	sw	x0,736(x10)
   10624:	00400793          	addi	x15,x0,4
   10628:	00050913          	addi	x18,x10,0
   1062c:	00f42623          	sw	x15,12(x8)
   10630:	00800613          	addi	x12,x0,8
   10634:	00000593          	addi	x11,x0,0
   10638:	00042023          	sw	x0,0(x8)
   1063c:	00042223          	sw	x0,4(x8)
   10640:	00042423          	sw	x0,8(x8)
   10644:	06042223          	sw	x0,100(x8)
   10648:	00042823          	sw	x0,16(x8)
   1064c:	00042a23          	sw	x0,20(x8)
   10650:	00042c23          	sw	x0,24(x8)
   10654:	05c40513          	addi	x10,x8,92
   10658:	c05ff0ef          	jal	x1,1025c <memset>
   1065c:	00012b37          	lui	x22,0x12
   10660:	00892483          	lw	x9,8(x18)
   10664:	00012ab7          	lui	x21,0x12
   10668:	00012a37          	lui	x20,0x12
   1066c:	000129b7          	lui	x19,0x12
   10670:	048b0b13          	addi	x22,x22,72 # 12048 <__sread>
   10674:	0aca8a93          	addi	x21,x21,172 # 120ac <__swrite>
   10678:	134a0a13          	addi	x20,x20,308 # 12134 <__sseek>
   1067c:	1ac98993          	addi	x19,x19,428 # 121ac <__sclose>
   10680:	000107b7          	lui	x15,0x10
   10684:	03642023          	sw	x22,32(x8)
   10688:	03542223          	sw	x21,36(x8)
   1068c:	03442423          	sw	x20,40(x8)
   10690:	03342623          	sw	x19,44(x8)
   10694:	00842e23          	sw	x8,28(x8)
   10698:	00978793          	addi	x15,x15,9 # 10009 <exit-0x8b>
   1069c:	00f4a623          	sw	x15,12(x9)
   106a0:	00800613          	addi	x12,x0,8
   106a4:	00000593          	addi	x11,x0,0
   106a8:	0004a023          	sw	x0,0(x9)
   106ac:	0004a223          	sw	x0,4(x9)
   106b0:	0004a423          	sw	x0,8(x9)
   106b4:	0604a223          	sw	x0,100(x9)
   106b8:	0004a823          	sw	x0,16(x9)
   106bc:	0004aa23          	sw	x0,20(x9)
   106c0:	0004ac23          	sw	x0,24(x9)
   106c4:	05c48513          	addi	x10,x9,92
   106c8:	b95ff0ef          	jal	x1,1025c <memset>
   106cc:	00c92403          	lw	x8,12(x18)
   106d0:	000207b7          	lui	x15,0x20
   106d4:	0364a023          	sw	x22,32(x9)
   106d8:	0354a223          	sw	x21,36(x9)
   106dc:	0344a423          	sw	x20,40(x9)
   106e0:	0334a623          	sw	x19,44(x9)
   106e4:	0094ae23          	sw	x9,28(x9)
   106e8:	01278793          	addi	x15,x15,18 # 20012 <__BSS_END__+0xb1d6>
   106ec:	00f42623          	sw	x15,12(x8)
   106f0:	00042023          	sw	x0,0(x8)
   106f4:	00042223          	sw	x0,4(x8)
   106f8:	00042423          	sw	x0,8(x8)
   106fc:	06042223          	sw	x0,100(x8)
   10700:	00042823          	sw	x0,16(x8)
   10704:	00042a23          	sw	x0,20(x8)
   10708:	00042c23          	sw	x0,24(x8)
   1070c:	05c40513          	addi	x10,x8,92
   10710:	00800613          	addi	x12,x0,8
   10714:	00000593          	addi	x11,x0,0
   10718:	b45ff0ef          	jal	x1,1025c <memset>
   1071c:	01c12083          	lw	x1,28(x2)
   10720:	03642023          	sw	x22,32(x8)
   10724:	03542223          	sw	x21,36(x8)
   10728:	03442423          	sw	x20,40(x8)
   1072c:	03342623          	sw	x19,44(x8)
   10730:	00842e23          	sw	x8,28(x8)
   10734:	01812403          	lw	x8,24(x2)
   10738:	00100793          	addi	x15,x0,1
   1073c:	02f92c23          	sw	x15,56(x18)
   10740:	01412483          	lw	x9,20(x2)
   10744:	01012903          	lw	x18,16(x2)
   10748:	00c12983          	lw	x19,12(x2)
   1074c:	00812a03          	lw	x20,8(x2)
   10750:	00412a83          	lw	x21,4(x2)
   10754:	00012b03          	lw	x22,0(x2)
   10758:	02010113          	addi	x2,x2,32
   1075c:	00008067          	jalr	x0,0(x1)

00010760 <__sfmoreglue>:
   10760:	ff010113          	addi	x2,x2,-16
   10764:	00912223          	sw	x9,4(x2)
   10768:	06800793          	addi	x15,x0,104
   1076c:	fff58493          	addi	x9,x11,-1
   10770:	02f484b3          	mul	x9,x9,x15
   10774:	01212023          	sw	x18,0(x2)
   10778:	00058913          	addi	x18,x11,0
   1077c:	00812423          	sw	x8,8(x2)
   10780:	00112623          	sw	x1,12(x2)
   10784:	07448593          	addi	x11,x9,116
   10788:	011000ef          	jal	x1,10f98 <_malloc_r>
   1078c:	00050413          	addi	x8,x10,0
   10790:	02050063          	beq	x10,x0,107b0 <__sfmoreglue+0x50>
   10794:	00c50513          	addi	x10,x10,12
   10798:	00042023          	sw	x0,0(x8)
   1079c:	01242223          	sw	x18,4(x8)
   107a0:	00a42423          	sw	x10,8(x8)
   107a4:	06848613          	addi	x12,x9,104
   107a8:	00000593          	addi	x11,x0,0
   107ac:	ab1ff0ef          	jal	x1,1025c <memset>
   107b0:	00c12083          	lw	x1,12(x2)
   107b4:	00040513          	addi	x10,x8,0
   107b8:	00812403          	lw	x8,8(x2)
   107bc:	00412483          	lw	x9,4(x2)
   107c0:	00012903          	lw	x18,0(x2)
   107c4:	01010113          	addi	x2,x2,16
   107c8:	00008067          	jalr	x0,0(x1)

000107cc <__sfp>:
   107cc:	fe010113          	addi	x2,x2,-32
   107d0:	01212823          	sw	x18,16(x2)
   107d4:	0301a903          	lw	x18,48(x3) # 14dd0 <_global_impure_ptr>
   107d8:	01312623          	sw	x19,12(x2)
   107dc:	00112e23          	sw	x1,28(x2)
   107e0:	03892783          	lw	x15,56(x18)
   107e4:	00812c23          	sw	x8,24(x2)
   107e8:	00912a23          	sw	x9,20(x2)
   107ec:	00050993          	addi	x19,x10,0
   107f0:	0a078663          	beq	x15,x0,1089c <__sfp+0xd0>
   107f4:	2e090913          	addi	x18,x18,736
   107f8:	fff00493          	addi	x9,x0,-1
   107fc:	00492783          	lw	x15,4(x18)
   10800:	00892403          	lw	x8,8(x18)
   10804:	fff78793          	addi	x15,x15,-1
   10808:	0007d863          	bge	x15,x0,10818 <__sfp+0x4c>
   1080c:	0800006f          	jal	x0,1088c <__sfp+0xc0>
   10810:	06840413          	addi	x8,x8,104
   10814:	06978c63          	beq	x15,x9,1088c <__sfp+0xc0>
   10818:	00c41703          	lh	x14,12(x8)
   1081c:	fff78793          	addi	x15,x15,-1
   10820:	fe0718e3          	bne	x14,x0,10810 <__sfp+0x44>
   10824:	ffff07b7          	lui	x15,0xffff0
   10828:	00178793          	addi	x15,x15,1 # ffff0001 <__BSS_END__+0xfffdb1c5>
   1082c:	00f42623          	sw	x15,12(x8)
   10830:	06042223          	sw	x0,100(x8)
   10834:	00042023          	sw	x0,0(x8)
   10838:	00042423          	sw	x0,8(x8)
   1083c:	00042223          	sw	x0,4(x8)
   10840:	00042823          	sw	x0,16(x8)
   10844:	00042a23          	sw	x0,20(x8)
   10848:	00042c23          	sw	x0,24(x8)
   1084c:	00800613          	addi	x12,x0,8
   10850:	00000593          	addi	x11,x0,0
   10854:	05c40513          	addi	x10,x8,92
   10858:	a05ff0ef          	jal	x1,1025c <memset>
   1085c:	02042823          	sw	x0,48(x8)
   10860:	02042a23          	sw	x0,52(x8)
   10864:	04042223          	sw	x0,68(x8)
   10868:	04042423          	sw	x0,72(x8)
   1086c:	01c12083          	lw	x1,28(x2)
   10870:	00040513          	addi	x10,x8,0
   10874:	01812403          	lw	x8,24(x2)
   10878:	01412483          	lw	x9,20(x2)
   1087c:	01012903          	lw	x18,16(x2)
   10880:	00c12983          	lw	x19,12(x2)
   10884:	02010113          	addi	x2,x2,32
   10888:	00008067          	jalr	x0,0(x1)
   1088c:	00092403          	lw	x8,0(x18)
   10890:	00040c63          	beq	x8,x0,108a8 <__sfp+0xdc>
   10894:	00040913          	addi	x18,x8,0
   10898:	f65ff06f          	jal	x0,107fc <__sfp+0x30>
   1089c:	00090513          	addi	x10,x18,0
   108a0:	d3dff0ef          	jal	x1,105dc <__sinit.part.0>
   108a4:	f51ff06f          	jal	x0,107f4 <__sfp+0x28>
   108a8:	1ac00593          	addi	x11,x0,428
   108ac:	00098513          	addi	x10,x19,0
   108b0:	6e8000ef          	jal	x1,10f98 <_malloc_r>
   108b4:	00050413          	addi	x8,x10,0
   108b8:	02050863          	beq	x10,x0,108e8 <__sfp+0x11c>
   108bc:	00c50513          	addi	x10,x10,12
   108c0:	00400793          	addi	x15,x0,4
   108c4:	00042023          	sw	x0,0(x8)
   108c8:	00f42223          	sw	x15,4(x8)
   108cc:	00a42423          	sw	x10,8(x8)
   108d0:	1a000613          	addi	x12,x0,416
   108d4:	00000593          	addi	x11,x0,0
   108d8:	985ff0ef          	jal	x1,1025c <memset>
   108dc:	00892023          	sw	x8,0(x18)
   108e0:	00040913          	addi	x18,x8,0
   108e4:	f19ff06f          	jal	x0,107fc <__sfp+0x30>
   108e8:	00092023          	sw	x0,0(x18)
   108ec:	00c00793          	addi	x15,x0,12
   108f0:	00f9a023          	sw	x15,0(x19)
   108f4:	f79ff06f          	jal	x0,1086c <__sfp+0xa0>

000108f8 <_cleanup>:
   108f8:	0301a503          	lw	x10,48(x3) # 14dd0 <_global_impure_ptr>
   108fc:	000125b7          	lui	x11,0x12
   10900:	3cc58593          	addi	x11,x11,972 # 123cc <_fclose_r>
   10904:	5e00006f          	jal	x0,10ee4 <_fwalk_reent>

00010908 <__sinit>:
   10908:	03852783          	lw	x15,56(x10)
   1090c:	00078463          	beq	x15,x0,10914 <__sinit+0xc>
   10910:	00008067          	jalr	x0,0(x1)
   10914:	cc9ff06f          	jal	x0,105dc <__sinit.part.0>

00010918 <__sfp_lock_acquire>:
   10918:	00008067          	jalr	x0,0(x1)

0001091c <__sfp_lock_release>:
   1091c:	00008067          	jalr	x0,0(x1)

00010920 <__sinit_lock_acquire>:
   10920:	00008067          	jalr	x0,0(x1)

00010924 <__sinit_lock_release>:
   10924:	00008067          	jalr	x0,0(x1)

00010928 <__fp_lock_all>:
   10928:	0381a503          	lw	x10,56(x3) # 14dd8 <_impure_ptr>
   1092c:	000105b7          	lui	x11,0x10
   10930:	5c058593          	addi	x11,x11,1472 # 105c0 <__fp_lock>
   10934:	50c0006f          	jal	x0,10e40 <_fwalk>

00010938 <__fp_unlock_all>:
   10938:	0381a503          	lw	x10,56(x3) # 14dd8 <_impure_ptr>
   1093c:	000105b7          	lui	x11,0x10
   10940:	5d458593          	addi	x11,x11,1492 # 105d4 <__fp_unlock>
   10944:	4fc0006f          	jal	x0,10e40 <_fwalk>

00010948 <__libc_fini_array>:
   10948:	ff010113          	addi	x2,x2,-16
   1094c:	00812423          	sw	x8,8(x2)
   10950:	000147b7          	lui	x15,0x14
   10954:	00014437          	lui	x8,0x14
   10958:	59878793          	addi	x15,x15,1432 # 14598 <__do_global_dtors_aux_fini_array_entry>
   1095c:	59c40413          	addi	x8,x8,1436 # 1459c <__fini_array_end>
   10960:	40f40433          	sub	x8,x8,x15
   10964:	00912223          	sw	x9,4(x2)
   10968:	00112623          	sw	x1,12(x2)
   1096c:	40245493          	srai	x9,x8,0x2
   10970:	02048063          	beq	x9,x0,10990 <__libc_fini_array+0x48>
   10974:	ffc40413          	addi	x8,x8,-4
   10978:	00f40433          	add	x8,x8,x15
   1097c:	00042783          	lw	x15,0(x8)
   10980:	fff48493          	addi	x9,x9,-1
   10984:	ffc40413          	addi	x8,x8,-4
   10988:	000780e7          	jalr	x1,0(x15)
   1098c:	fe0498e3          	bne	x9,x0,1097c <__libc_fini_array+0x34>
   10990:	00c12083          	lw	x1,12(x2)
   10994:	00812403          	lw	x8,8(x2)
   10998:	00412483          	lw	x9,4(x2)
   1099c:	01010113          	addi	x2,x2,16
   109a0:	00008067          	jalr	x0,0(x1)

000109a4 <__sfvwrite_r>:
   109a4:	00862783          	lw	x15,8(x12)
   109a8:	30078a63          	beq	x15,x0,10cbc <__sfvwrite_r+0x318>
   109ac:	00c59683          	lh	x13,12(x11)
   109b0:	fd010113          	addi	x2,x2,-48
   109b4:	02812423          	sw	x8,40(x2)
   109b8:	01412c23          	sw	x20,24(x2)
   109bc:	01612823          	sw	x22,16(x2)
   109c0:	02112623          	sw	x1,44(x2)
   109c4:	02912223          	sw	x9,36(x2)
   109c8:	03212023          	sw	x18,32(x2)
   109cc:	01312e23          	sw	x19,28(x2)
   109d0:	01512a23          	sw	x21,20(x2)
   109d4:	01712623          	sw	x23,12(x2)
   109d8:	01812423          	sw	x24,8(x2)
   109dc:	01912223          	sw	x25,4(x2)
   109e0:	0086f793          	andi	x15,x13,8
   109e4:	00060b13          	addi	x22,x12,0
   109e8:	00050a13          	addi	x20,x10,0
   109ec:	00058413          	addi	x8,x11,0
   109f0:	08078663          	beq	x15,x0,10a7c <__sfvwrite_r+0xd8>
   109f4:	0105a783          	lw	x15,16(x11)
   109f8:	08078263          	beq	x15,x0,10a7c <__sfvwrite_r+0xd8>
   109fc:	0026f793          	andi	x15,x13,2
   10a00:	000b2483          	lw	x9,0(x22)
   10a04:	08078c63          	beq	x15,x0,10a9c <__sfvwrite_r+0xf8>
   10a08:	02442783          	lw	x15,36(x8)
   10a0c:	01c42583          	lw	x11,28(x8)
   10a10:	80000ab7          	lui	x21,0x80000
   10a14:	00000993          	addi	x19,x0,0
   10a18:	00000913          	addi	x18,x0,0
   10a1c:	c00aca93          	xori	x21,x21,-1024
   10a20:	00098613          	addi	x12,x19,0
   10a24:	000a0513          	addi	x10,x20,0
   10a28:	04090263          	beq	x18,x0,10a6c <__sfvwrite_r+0xc8>
   10a2c:	00090693          	addi	x13,x18,0
   10a30:	012af463          	bgeu	x21,x18,10a38 <__sfvwrite_r+0x94>
   10a34:	000a8693          	addi	x13,x21,0 # 80000000 <__BSS_END__+0x7ffeb1c4>
   10a38:	000780e7          	jalr	x1,0(x15)
   10a3c:	26a05663          	bge	x0,x10,10ca8 <__sfvwrite_r+0x304>
   10a40:	008b2783          	lw	x15,8(x22)
   10a44:	00a989b3          	add	x19,x19,x10
   10a48:	40a90933          	sub	x18,x18,x10
   10a4c:	40a787b3          	sub	x15,x15,x10
   10a50:	00fb2423          	sw	x15,8(x22)
   10a54:	20078663          	beq	x15,x0,10c60 <__sfvwrite_r+0x2bc>
   10a58:	02442783          	lw	x15,36(x8)
   10a5c:	01c42583          	lw	x11,28(x8)
   10a60:	00098613          	addi	x12,x19,0
   10a64:	000a0513          	addi	x10,x20,0
   10a68:	fc0912e3          	bne	x18,x0,10a2c <__sfvwrite_r+0x88>
   10a6c:	0004a983          	lw	x19,0(x9)
   10a70:	0044a903          	lw	x18,4(x9)
   10a74:	00848493          	addi	x9,x9,8
   10a78:	fa9ff06f          	jal	x0,10a20 <__sfvwrite_r+0x7c>
   10a7c:	00040593          	addi	x11,x8,0
   10a80:	000a0513          	addi	x10,x20,0
   10a84:	798010ef          	jal	x1,1221c <__swsetup_r>
   10a88:	22051663          	bne	x10,x0,10cb4 <__sfvwrite_r+0x310>
   10a8c:	00c41683          	lh	x13,12(x8)
   10a90:	000b2483          	lw	x9,0(x22)
   10a94:	0026f793          	andi	x15,x13,2
   10a98:	f60798e3          	bne	x15,x0,10a08 <__sfvwrite_r+0x64>
   10a9c:	0016f793          	andi	x15,x13,1
   10aa0:	12079c63          	bne	x15,x0,10bd8 <__sfvwrite_r+0x234>
   10aa4:	00042783          	lw	x15,0(x8)
   10aa8:	00842703          	lw	x14,8(x8)
   10aac:	80000ab7          	lui	x21,0x80000
   10ab0:	00000b93          	addi	x23,x0,0
   10ab4:	00000993          	addi	x19,x0,0
   10ab8:	fffaca93          	xori	x21,x21,-1
   10abc:	00078513          	addi	x10,x15,0
   10ac0:	00070c13          	addi	x24,x14,0
   10ac4:	10098263          	beq	x19,x0,10bc8 <__sfvwrite_r+0x224>
   10ac8:	2006f613          	andi	x12,x13,512
   10acc:	24060c63          	beq	x12,x0,10d24 <__sfvwrite_r+0x380>
   10ad0:	00070c93          	addi	x25,x14,0
   10ad4:	2ee9e463          	bltu	x19,x14,10dbc <__sfvwrite_r+0x418>
   10ad8:	4806f713          	andi	x14,x13,1152
   10adc:	08070a63          	beq	x14,x0,10b70 <__sfvwrite_r+0x1cc>
   10ae0:	01442603          	lw	x12,20(x8)
   10ae4:	01042583          	lw	x11,16(x8)
   10ae8:	00161713          	slli	x14,x12,0x1
   10aec:	00c70733          	add	x14,x14,x12
   10af0:	40b78933          	sub	x18,x15,x11
   10af4:	01f75c13          	srli	x24,x14,0x1f
   10af8:	00ec0c33          	add	x24,x24,x14
   10afc:	00190793          	addi	x15,x18,1
   10b00:	401c5c13          	srai	x24,x24,0x1
   10b04:	013787b3          	add	x15,x15,x19
   10b08:	000c0613          	addi	x12,x24,0
   10b0c:	00fc7663          	bgeu	x24,x15,10b18 <__sfvwrite_r+0x174>
   10b10:	00078c13          	addi	x24,x15,0
   10b14:	00078613          	addi	x12,x15,0
   10b18:	4006f693          	andi	x13,x13,1024
   10b1c:	2c068c63          	beq	x13,x0,10df4 <__sfvwrite_r+0x450>
   10b20:	00060593          	addi	x11,x12,0
   10b24:	000a0513          	addi	x10,x20,0
   10b28:	470000ef          	jal	x1,10f98 <_malloc_r>
   10b2c:	00050c93          	addi	x25,x10,0
   10b30:	30050063          	beq	x10,x0,10e30 <__sfvwrite_r+0x48c>
   10b34:	01042583          	lw	x11,16(x8)
   10b38:	00090613          	addi	x12,x18,0
   10b3c:	495000ef          	jal	x1,117d0 <memcpy>
   10b40:	00c45783          	lhu	x15,12(x8)
   10b44:	b7f7f793          	andi	x15,x15,-1153
   10b48:	0807e793          	ori	x15,x15,128
   10b4c:	00f41623          	sh	x15,12(x8)
   10b50:	012c8533          	add	x10,x25,x18
   10b54:	412c07b3          	sub	x15,x24,x18
   10b58:	01942823          	sw	x25,16(x8)
   10b5c:	01842a23          	sw	x24,20(x8)
   10b60:	00a42023          	sw	x10,0(x8)
   10b64:	00098c13          	addi	x24,x19,0
   10b68:	00f42423          	sw	x15,8(x8)
   10b6c:	00098c93          	addi	x25,x19,0
   10b70:	000c8613          	addi	x12,x25,0
   10b74:	000b8593          	addi	x11,x23,0
   10b78:	5fd000ef          	jal	x1,11974 <memmove>
   10b7c:	00842703          	lw	x14,8(x8)
   10b80:	00042783          	lw	x15,0(x8)
   10b84:	00098913          	addi	x18,x19,0
   10b88:	41870733          	sub	x14,x14,x24
   10b8c:	019787b3          	add	x15,x15,x25
   10b90:	00e42423          	sw	x14,8(x8)
   10b94:	00f42023          	sw	x15,0(x8)
   10b98:	00000993          	addi	x19,x0,0
   10b9c:	008b2783          	lw	x15,8(x22)
   10ba0:	012b8bb3          	add	x23,x23,x18
   10ba4:	412787b3          	sub	x15,x15,x18
   10ba8:	00fb2423          	sw	x15,8(x22)
   10bac:	0a078a63          	beq	x15,x0,10c60 <__sfvwrite_r+0x2bc>
   10bb0:	00042783          	lw	x15,0(x8)
   10bb4:	00842703          	lw	x14,8(x8)
   10bb8:	00c41683          	lh	x13,12(x8)
   10bbc:	00078513          	addi	x10,x15,0
   10bc0:	00070c13          	addi	x24,x14,0
   10bc4:	f00992e3          	bne	x19,x0,10ac8 <__sfvwrite_r+0x124>
   10bc8:	0004ab83          	lw	x23,0(x9)
   10bcc:	0044a983          	lw	x19,4(x9)
   10bd0:	00848493          	addi	x9,x9,8
   10bd4:	ee9ff06f          	jal	x0,10abc <__sfvwrite_r+0x118>
   10bd8:	00000a93          	addi	x21,x0,0
   10bdc:	00000513          	addi	x10,x0,0
   10be0:	00000c13          	addi	x24,x0,0
   10be4:	00000993          	addi	x19,x0,0
   10be8:	0c098e63          	beq	x19,x0,10cc4 <__sfvwrite_r+0x320>
   10bec:	0e050663          	beq	x10,x0,10cd8 <__sfvwrite_r+0x334>
   10bf0:	000a8793          	addi	x15,x21,0 # 80000000 <__BSS_END__+0x7ffeb1c4>
   10bf4:	00098b93          	addi	x23,x19,0
   10bf8:	0137f463          	bgeu	x15,x19,10c00 <__sfvwrite_r+0x25c>
   10bfc:	00078b93          	addi	x23,x15,0
   10c00:	00042503          	lw	x10,0(x8)
   10c04:	01042783          	lw	x15,16(x8)
   10c08:	00842903          	lw	x18,8(x8)
   10c0c:	01442683          	lw	x13,20(x8)
   10c10:	00a7f663          	bgeu	x15,x10,10c1c <__sfvwrite_r+0x278>
   10c14:	00d90933          	add	x18,x18,x13
   10c18:	0f794063          	blt	x18,x23,10cf8 <__sfvwrite_r+0x354>
   10c1c:	1adbc663          	blt	x23,x13,10dc8 <__sfvwrite_r+0x424>
   10c20:	02442783          	lw	x15,36(x8)
   10c24:	01c42583          	lw	x11,28(x8)
   10c28:	000c0613          	addi	x12,x24,0
   10c2c:	000a0513          	addi	x10,x20,0
   10c30:	000780e7          	jalr	x1,0(x15)
   10c34:	00050913          	addi	x18,x10,0
   10c38:	06a05863          	bge	x0,x10,10ca8 <__sfvwrite_r+0x304>
   10c3c:	412a8ab3          	sub	x21,x21,x18
   10c40:	00100513          	addi	x10,x0,1
   10c44:	040a8a63          	beq	x21,x0,10c98 <__sfvwrite_r+0x2f4>
   10c48:	008b2783          	lw	x15,8(x22)
   10c4c:	012c0c33          	add	x24,x24,x18
   10c50:	412989b3          	sub	x19,x19,x18
   10c54:	412787b3          	sub	x15,x15,x18
   10c58:	00fb2423          	sw	x15,8(x22)
   10c5c:	f80796e3          	bne	x15,x0,10be8 <__sfvwrite_r+0x244>
   10c60:	00000513          	addi	x10,x0,0
   10c64:	02c12083          	lw	x1,44(x2)
   10c68:	02812403          	lw	x8,40(x2)
   10c6c:	02412483          	lw	x9,36(x2)
   10c70:	02012903          	lw	x18,32(x2)
   10c74:	01c12983          	lw	x19,28(x2)
   10c78:	01812a03          	lw	x20,24(x2)
   10c7c:	01412a83          	lw	x21,20(x2)
   10c80:	01012b03          	lw	x22,16(x2)
   10c84:	00c12b83          	lw	x23,12(x2)
   10c88:	00812c03          	lw	x24,8(x2)
   10c8c:	00412c83          	lw	x25,4(x2)
   10c90:	03010113          	addi	x2,x2,48
   10c94:	00008067          	jalr	x0,0(x1)
   10c98:	00040593          	addi	x11,x8,0
   10c9c:	000a0513          	addi	x10,x20,0
   10ca0:	295010ef          	jal	x1,12734 <_fflush_r>
   10ca4:	fa0502e3          	beq	x10,x0,10c48 <__sfvwrite_r+0x2a4>
   10ca8:	00c41783          	lh	x15,12(x8)
   10cac:	0407e793          	ori	x15,x15,64
   10cb0:	00f41623          	sh	x15,12(x8)
   10cb4:	fff00513          	addi	x10,x0,-1
   10cb8:	fadff06f          	jal	x0,10c64 <__sfvwrite_r+0x2c0>
   10cbc:	00000513          	addi	x10,x0,0
   10cc0:	00008067          	jalr	x0,0(x1)
   10cc4:	0044a983          	lw	x19,4(x9)
   10cc8:	00048793          	addi	x15,x9,0
   10ccc:	00848493          	addi	x9,x9,8
   10cd0:	fe098ae3          	beq	x19,x0,10cc4 <__sfvwrite_r+0x320>
   10cd4:	0007ac03          	lw	x24,0(x15)
   10cd8:	00098613          	addi	x12,x19,0
   10cdc:	00a00593          	addi	x11,x0,10
   10ce0:	000c0513          	addi	x10,x24,0
   10ce4:	229000ef          	jal	x1,1170c <memchr>
   10ce8:	12050e63          	beq	x10,x0,10e24 <__sfvwrite_r+0x480>
   10cec:	00150513          	addi	x10,x10,1
   10cf0:	41850ab3          	sub	x21,x10,x24
   10cf4:	efdff06f          	jal	x0,10bf0 <__sfvwrite_r+0x24c>
   10cf8:	000c0593          	addi	x11,x24,0
   10cfc:	00090613          	addi	x12,x18,0
   10d00:	475000ef          	jal	x1,11974 <memmove>
   10d04:	00042783          	lw	x15,0(x8)
   10d08:	00040593          	addi	x11,x8,0
   10d0c:	000a0513          	addi	x10,x20,0
   10d10:	012787b3          	add	x15,x15,x18
   10d14:	00f42023          	sw	x15,0(x8)
   10d18:	21d010ef          	jal	x1,12734 <_fflush_r>
   10d1c:	f20500e3          	beq	x10,x0,10c3c <__sfvwrite_r+0x298>
   10d20:	f89ff06f          	jal	x0,10ca8 <__sfvwrite_r+0x304>
   10d24:	01042683          	lw	x13,16(x8)
   10d28:	04f6e263          	bltu	x13,x15,10d6c <__sfvwrite_r+0x3c8>
   10d2c:	01442603          	lw	x12,20(x8)
   10d30:	02c9ee63          	bltu	x19,x12,10d6c <__sfvwrite_r+0x3c8>
   10d34:	00098793          	addi	x15,x19,0
   10d38:	013af463          	bgeu	x21,x19,10d40 <__sfvwrite_r+0x39c>
   10d3c:	000a8793          	addi	x15,x21,0
   10d40:	02c7e6b3          	rem	x13,x15,x12
   10d44:	02442703          	lw	x14,36(x8)
   10d48:	01c42583          	lw	x11,28(x8)
   10d4c:	000b8613          	addi	x12,x23,0
   10d50:	000a0513          	addi	x10,x20,0
   10d54:	40d786b3          	sub	x13,x15,x13
   10d58:	000700e7          	jalr	x1,0(x14)
   10d5c:	00050913          	addi	x18,x10,0
   10d60:	f4a054e3          	bge	x0,x10,10ca8 <__sfvwrite_r+0x304>
   10d64:	412989b3          	sub	x19,x19,x18
   10d68:	e35ff06f          	jal	x0,10b9c <__sfvwrite_r+0x1f8>
   10d6c:	00070913          	addi	x18,x14,0
   10d70:	00e9f463          	bgeu	x19,x14,10d78 <__sfvwrite_r+0x3d4>
   10d74:	00098913          	addi	x18,x19,0
   10d78:	00078513          	addi	x10,x15,0
   10d7c:	00090613          	addi	x12,x18,0
   10d80:	000b8593          	addi	x11,x23,0
   10d84:	3f1000ef          	jal	x1,11974 <memmove>
   10d88:	00842703          	lw	x14,8(x8)
   10d8c:	00042783          	lw	x15,0(x8)
   10d90:	41270733          	sub	x14,x14,x18
   10d94:	012787b3          	add	x15,x15,x18
   10d98:	00e42423          	sw	x14,8(x8)
   10d9c:	00f42023          	sw	x15,0(x8)
   10da0:	fc0712e3          	bne	x14,x0,10d64 <__sfvwrite_r+0x3c0>
   10da4:	00040593          	addi	x11,x8,0
   10da8:	000a0513          	addi	x10,x20,0
   10dac:	189010ef          	jal	x1,12734 <_fflush_r>
   10db0:	ee051ce3          	bne	x10,x0,10ca8 <__sfvwrite_r+0x304>
   10db4:	412989b3          	sub	x19,x19,x18
   10db8:	de5ff06f          	jal	x0,10b9c <__sfvwrite_r+0x1f8>
   10dbc:	00098c13          	addi	x24,x19,0
   10dc0:	00098c93          	addi	x25,x19,0
   10dc4:	dadff06f          	jal	x0,10b70 <__sfvwrite_r+0x1cc>
   10dc8:	000b8613          	addi	x12,x23,0
   10dcc:	000c0593          	addi	x11,x24,0
   10dd0:	3a5000ef          	jal	x1,11974 <memmove>
   10dd4:	00842703          	lw	x14,8(x8)
   10dd8:	00042783          	lw	x15,0(x8)
   10ddc:	000b8913          	addi	x18,x23,0
   10de0:	41770733          	sub	x14,x14,x23
   10de4:	017787b3          	add	x15,x15,x23
   10de8:	00e42423          	sw	x14,8(x8)
   10dec:	00f42023          	sw	x15,0(x8)
   10df0:	e4dff06f          	jal	x0,10c3c <__sfvwrite_r+0x298>
   10df4:	000a0513          	addi	x10,x20,0
   10df8:	4a1000ef          	jal	x1,11a98 <_realloc_r>
   10dfc:	00050c93          	addi	x25,x10,0
   10e00:	d40518e3          	bne	x10,x0,10b50 <__sfvwrite_r+0x1ac>
   10e04:	01042583          	lw	x11,16(x8)
   10e08:	000a0513          	addi	x10,x20,0
   10e0c:	335010ef          	jal	x1,12940 <_free_r>
   10e10:	00c41783          	lh	x15,12(x8)
   10e14:	00c00713          	addi	x14,x0,12
   10e18:	00ea2023          	sw	x14,0(x20)
   10e1c:	f7f7f793          	andi	x15,x15,-129
   10e20:	e8dff06f          	jal	x0,10cac <__sfvwrite_r+0x308>
   10e24:	00198793          	addi	x15,x19,1
   10e28:	00078a93          	addi	x21,x15,0
   10e2c:	dc9ff06f          	jal	x0,10bf4 <__sfvwrite_r+0x250>
   10e30:	00c00713          	addi	x14,x0,12
   10e34:	00c41783          	lh	x15,12(x8)
   10e38:	00ea2023          	sw	x14,0(x20)
   10e3c:	e71ff06f          	jal	x0,10cac <__sfvwrite_r+0x308>

00010e40 <_fwalk>:
   10e40:	fe010113          	addi	x2,x2,-32
   10e44:	01212823          	sw	x18,16(x2)
   10e48:	01312623          	sw	x19,12(x2)
   10e4c:	01412423          	sw	x20,8(x2)
   10e50:	01512223          	sw	x21,4(x2)
   10e54:	01612023          	sw	x22,0(x2)
   10e58:	00112e23          	sw	x1,28(x2)
   10e5c:	00812c23          	sw	x8,24(x2)
   10e60:	00912a23          	sw	x9,20(x2)
   10e64:	00058b13          	addi	x22,x11,0
   10e68:	2e050a93          	addi	x21,x10,736
   10e6c:	00000a13          	addi	x20,x0,0
   10e70:	00100993          	addi	x19,x0,1
   10e74:	fff00913          	addi	x18,x0,-1
   10e78:	004aa483          	lw	x9,4(x21)
   10e7c:	008aa403          	lw	x8,8(x21)
   10e80:	fff48493          	addi	x9,x9,-1
   10e84:	0204c663          	blt	x9,x0,10eb0 <_fwalk+0x70>
   10e88:	00c45783          	lhu	x15,12(x8)
   10e8c:	fff48493          	addi	x9,x9,-1
   10e90:	00f9fc63          	bgeu	x19,x15,10ea8 <_fwalk+0x68>
   10e94:	00e41783          	lh	x15,14(x8)
   10e98:	00040513          	addi	x10,x8,0
   10e9c:	01278663          	beq	x15,x18,10ea8 <_fwalk+0x68>
   10ea0:	000b00e7          	jalr	x1,0(x22)
   10ea4:	00aa6a33          	or	x20,x20,x10
   10ea8:	06840413          	addi	x8,x8,104
   10eac:	fd249ee3          	bne	x9,x18,10e88 <_fwalk+0x48>
   10eb0:	000aaa83          	lw	x21,0(x21)
   10eb4:	fc0a92e3          	bne	x21,x0,10e78 <_fwalk+0x38>
   10eb8:	01c12083          	lw	x1,28(x2)
   10ebc:	01812403          	lw	x8,24(x2)
   10ec0:	01412483          	lw	x9,20(x2)
   10ec4:	01012903          	lw	x18,16(x2)
   10ec8:	00c12983          	lw	x19,12(x2)
   10ecc:	00412a83          	lw	x21,4(x2)
   10ed0:	00012b03          	lw	x22,0(x2)
   10ed4:	000a0513          	addi	x10,x20,0
   10ed8:	00812a03          	lw	x20,8(x2)
   10edc:	02010113          	addi	x2,x2,32
   10ee0:	00008067          	jalr	x0,0(x1)

00010ee4 <_fwalk_reent>:
   10ee4:	fd010113          	addi	x2,x2,-48
   10ee8:	03212023          	sw	x18,32(x2)
   10eec:	01312e23          	sw	x19,28(x2)
   10ef0:	01412c23          	sw	x20,24(x2)
   10ef4:	01512a23          	sw	x21,20(x2)
   10ef8:	01612823          	sw	x22,16(x2)
   10efc:	01712623          	sw	x23,12(x2)
   10f00:	02112623          	sw	x1,44(x2)
   10f04:	02812423          	sw	x8,40(x2)
   10f08:	02912223          	sw	x9,36(x2)
   10f0c:	00050a93          	addi	x21,x10,0
   10f10:	00058b93          	addi	x23,x11,0
   10f14:	2e050b13          	addi	x22,x10,736
   10f18:	00000a13          	addi	x20,x0,0
   10f1c:	00100993          	addi	x19,x0,1
   10f20:	fff00913          	addi	x18,x0,-1
   10f24:	004b2483          	lw	x9,4(x22)
   10f28:	008b2403          	lw	x8,8(x22)
   10f2c:	fff48493          	addi	x9,x9,-1
   10f30:	0204c863          	blt	x9,x0,10f60 <_fwalk_reent+0x7c>
   10f34:	00c45783          	lhu	x15,12(x8)
   10f38:	fff48493          	addi	x9,x9,-1
   10f3c:	00f9fe63          	bgeu	x19,x15,10f58 <_fwalk_reent+0x74>
   10f40:	00e41783          	lh	x15,14(x8)
   10f44:	00040593          	addi	x11,x8,0
   10f48:	000a8513          	addi	x10,x21,0
   10f4c:	01278663          	beq	x15,x18,10f58 <_fwalk_reent+0x74>
   10f50:	000b80e7          	jalr	x1,0(x23)
   10f54:	00aa6a33          	or	x20,x20,x10
   10f58:	06840413          	addi	x8,x8,104
   10f5c:	fd249ce3          	bne	x9,x18,10f34 <_fwalk_reent+0x50>
   10f60:	000b2b03          	lw	x22,0(x22)
   10f64:	fc0b10e3          	bne	x22,x0,10f24 <_fwalk_reent+0x40>
   10f68:	02c12083          	lw	x1,44(x2)
   10f6c:	02812403          	lw	x8,40(x2)
   10f70:	02412483          	lw	x9,36(x2)
   10f74:	02012903          	lw	x18,32(x2)
   10f78:	01c12983          	lw	x19,28(x2)
   10f7c:	01412a83          	lw	x21,20(x2)
   10f80:	01012b03          	lw	x22,16(x2)
   10f84:	00c12b83          	lw	x23,12(x2)
   10f88:	000a0513          	addi	x10,x20,0
   10f8c:	01812a03          	lw	x20,24(x2)
   10f90:	03010113          	addi	x2,x2,48
   10f94:	00008067          	jalr	x0,0(x1)

00010f98 <_malloc_r>:
   10f98:	fd010113          	addi	x2,x2,-48
   10f9c:	01312e23          	sw	x19,28(x2)
   10fa0:	02112623          	sw	x1,44(x2)
   10fa4:	02812423          	sw	x8,40(x2)
   10fa8:	02912223          	sw	x9,36(x2)
   10fac:	03212023          	sw	x18,32(x2)
   10fb0:	01412c23          	sw	x20,24(x2)
   10fb4:	01512a23          	sw	x21,20(x2)
   10fb8:	01612823          	sw	x22,16(x2)
   10fbc:	01712623          	sw	x23,12(x2)
   10fc0:	01812423          	sw	x24,8(x2)
   10fc4:	01912223          	sw	x25,4(x2)
   10fc8:	00b58793          	addi	x15,x11,11
   10fcc:	01600713          	addi	x14,x0,22
   10fd0:	00050993          	addi	x19,x10,0
   10fd4:	08f76c63          	bltu	x14,x15,1106c <_malloc_r+0xd4>
   10fd8:	01000793          	addi	x15,x0,16
   10fdc:	20b7ea63          	bltu	x15,x11,111f0 <_malloc_r+0x258>
   10fe0:	2b1000ef          	jal	x1,11a90 <__malloc_lock>
   10fe4:	01000493          	addi	x9,x0,16
   10fe8:	01800793          	addi	x15,x0,24
   10fec:	00200593          	addi	x11,x0,2
   10ff0:	c2818913          	addi	x18,x3,-984 # 149c8 <__malloc_av_>
   10ff4:	00f907b3          	add	x15,x18,x15
   10ff8:	0047a403          	lw	x8,4(x15)
   10ffc:	ff878713          	addi	x14,x15,-8
   11000:	30e40063          	beq	x8,x14,11300 <_malloc_r+0x368>
   11004:	00442783          	lw	x15,4(x8)
   11008:	00c42683          	lw	x13,12(x8)
   1100c:	00842603          	lw	x12,8(x8)
   11010:	ffc7f793          	andi	x15,x15,-4
   11014:	00f407b3          	add	x15,x8,x15
   11018:	0047a703          	lw	x14,4(x15)
   1101c:	00d62623          	sw	x13,12(x12)
   11020:	00c6a423          	sw	x12,8(x13)
   11024:	00176713          	ori	x14,x14,1
   11028:	00098513          	addi	x10,x19,0
   1102c:	00e7a223          	sw	x14,4(x15)
   11030:	265000ef          	jal	x1,11a94 <__malloc_unlock>
   11034:	00840513          	addi	x10,x8,8
   11038:	02c12083          	lw	x1,44(x2)
   1103c:	02812403          	lw	x8,40(x2)
   11040:	02412483          	lw	x9,36(x2)
   11044:	02012903          	lw	x18,32(x2)
   11048:	01c12983          	lw	x19,28(x2)
   1104c:	01812a03          	lw	x20,24(x2)
   11050:	01412a83          	lw	x21,20(x2)
   11054:	01012b03          	lw	x22,16(x2)
   11058:	00c12b83          	lw	x23,12(x2)
   1105c:	00812c03          	lw	x24,8(x2)
   11060:	00412c83          	lw	x25,4(x2)
   11064:	03010113          	addi	x2,x2,48
   11068:	00008067          	jalr	x0,0(x1)
   1106c:	ff87f493          	andi	x9,x15,-8
   11070:	1807c063          	blt	x15,x0,111f0 <_malloc_r+0x258>
   11074:	16b4ee63          	bltu	x9,x11,111f0 <_malloc_r+0x258>
   11078:	219000ef          	jal	x1,11a90 <__malloc_lock>
   1107c:	1f700793          	addi	x15,x0,503
   11080:	3897fa63          	bgeu	x15,x9,11414 <_malloc_r+0x47c>
   11084:	0094d793          	srli	x15,x9,0x9
   11088:	16078c63          	beq	x15,x0,11200 <_malloc_r+0x268>
   1108c:	00400713          	addi	x14,x0,4
   11090:	2ef76063          	bltu	x14,x15,11370 <_malloc_r+0x3d8>
   11094:	0064d793          	srli	x15,x9,0x6
   11098:	03978593          	addi	x11,x15,57
   1109c:	03878513          	addi	x10,x15,56
   110a0:	00359693          	slli	x13,x11,0x3
   110a4:	c2818913          	addi	x18,x3,-984 # 149c8 <__malloc_av_>
   110a8:	00d906b3          	add	x13,x18,x13
   110ac:	0046a403          	lw	x8,4(x13)
   110b0:	ff868693          	addi	x13,x13,-8
   110b4:	02868663          	beq	x13,x8,110e0 <_malloc_r+0x148>
   110b8:	00f00613          	addi	x12,x0,15
   110bc:	0100006f          	jal	x0,110cc <_malloc_r+0x134>
   110c0:	22075a63          	bge	x14,x0,112f4 <_malloc_r+0x35c>
   110c4:	00c42403          	lw	x8,12(x8)
   110c8:	00868c63          	beq	x13,x8,110e0 <_malloc_r+0x148>
   110cc:	00442783          	lw	x15,4(x8)
   110d0:	ffc7f793          	andi	x15,x15,-4
   110d4:	40978733          	sub	x14,x15,x9
   110d8:	fee654e3          	bge	x12,x14,110c0 <_malloc_r+0x128>
   110dc:	00050593          	addi	x11,x10,0
   110e0:	01092403          	lw	x8,16(x18)
   110e4:	c3018813          	addi	x16,x3,-976 # 149d0 <__malloc_av_+0x8>
   110e8:	1d040e63          	beq	x8,x16,112c4 <_malloc_r+0x32c>
   110ec:	00442783          	lw	x15,4(x8)
   110f0:	00f00693          	addi	x13,x0,15
   110f4:	ffc7f793          	andi	x15,x15,-4
   110f8:	40978733          	sub	x14,x15,x9
   110fc:	32e6c263          	blt	x13,x14,11420 <_malloc_r+0x488>
   11100:	01092a23          	sw	x16,20(x18)
   11104:	01092823          	sw	x16,16(x18)
   11108:	2e075663          	bge	x14,x0,113f4 <_malloc_r+0x45c>
   1110c:	1ff00713          	addi	x14,x0,511
   11110:	00492503          	lw	x10,4(x18)
   11114:	1ef76e63          	bltu	x14,x15,11310 <_malloc_r+0x378>
   11118:	ff87f713          	andi	x14,x15,-8
   1111c:	00870713          	addi	x14,x14,8
   11120:	00e90733          	add	x14,x18,x14
   11124:	00072683          	lw	x13,0(x14)
   11128:	0057d613          	srli	x12,x15,0x5
   1112c:	00100793          	addi	x15,x0,1
   11130:	00c797b3          	sll	x15,x15,x12
   11134:	00f56533          	or	x10,x10,x15
   11138:	ff870793          	addi	x15,x14,-8
   1113c:	00f42623          	sw	x15,12(x8)
   11140:	00d42423          	sw	x13,8(x8)
   11144:	00a92223          	sw	x10,4(x18)
   11148:	00872023          	sw	x8,0(x14)
   1114c:	0086a623          	sw	x8,12(x13)
   11150:	4025d793          	srai	x15,x11,0x2
   11154:	00100613          	addi	x12,x0,1
   11158:	00f61633          	sll	x12,x12,x15
   1115c:	0ac56a63          	bltu	x10,x12,11210 <_malloc_r+0x278>
   11160:	00a677b3          	and	x15,x12,x10
   11164:	02079463          	bne	x15,x0,1118c <_malloc_r+0x1f4>
   11168:	00161613          	slli	x12,x12,0x1
   1116c:	ffc5f593          	andi	x11,x11,-4
   11170:	00a677b3          	and	x15,x12,x10
   11174:	00458593          	addi	x11,x11,4
   11178:	00079a63          	bne	x15,x0,1118c <_malloc_r+0x1f4>
   1117c:	00161613          	slli	x12,x12,0x1
   11180:	00a677b3          	and	x15,x12,x10
   11184:	00458593          	addi	x11,x11,4
   11188:	fe078ae3          	beq	x15,x0,1117c <_malloc_r+0x1e4>
   1118c:	00f00893          	addi	x17,x0,15
   11190:	00359313          	slli	x6,x11,0x3
   11194:	00690333          	add	x6,x18,x6
   11198:	00030513          	addi	x10,x6,0 # 10180 <frame_dummy+0x14>
   1119c:	00c52783          	lw	x15,12(x10)
   111a0:	00058e13          	addi	x28,x11,0
   111a4:	1ef50863          	beq	x10,x15,11394 <_malloc_r+0x3fc>
   111a8:	0047a703          	lw	x14,4(x15)
   111ac:	00078413          	addi	x8,x15,0
   111b0:	00c7a783          	lw	x15,12(x15)
   111b4:	ffc77713          	andi	x14,x14,-4
   111b8:	409706b3          	sub	x13,x14,x9
   111bc:	1ed8c863          	blt	x17,x13,113ac <_malloc_r+0x414>
   111c0:	fe06c2e3          	blt	x13,x0,111a4 <_malloc_r+0x20c>
   111c4:	00e40733          	add	x14,x8,x14
   111c8:	00472683          	lw	x13,4(x14)
   111cc:	00842603          	lw	x12,8(x8)
   111d0:	00098513          	addi	x10,x19,0
   111d4:	0016e693          	ori	x13,x13,1
   111d8:	00d72223          	sw	x13,4(x14)
   111dc:	00f62623          	sw	x15,12(x12)
   111e0:	00c7a423          	sw	x12,8(x15)
   111e4:	0b1000ef          	jal	x1,11a94 <__malloc_unlock>
   111e8:	00840513          	addi	x10,x8,8
   111ec:	e4dff06f          	jal	x0,11038 <_malloc_r+0xa0>
   111f0:	00c00793          	addi	x15,x0,12
   111f4:	00f9a023          	sw	x15,0(x19)
   111f8:	00000513          	addi	x10,x0,0
   111fc:	e3dff06f          	jal	x0,11038 <_malloc_r+0xa0>
   11200:	20000693          	addi	x13,x0,512
   11204:	04000593          	addi	x11,x0,64
   11208:	03f00513          	addi	x10,x0,63
   1120c:	e99ff06f          	jal	x0,110a4 <_malloc_r+0x10c>
   11210:	00892403          	lw	x8,8(x18)
   11214:	00442783          	lw	x15,4(x8)
   11218:	ffc7fb13          	andi	x22,x15,-4
   1121c:	009b6863          	bltu	x22,x9,1122c <_malloc_r+0x294>
   11220:	409b0733          	sub	x14,x22,x9
   11224:	00f00793          	addi	x15,x0,15
   11228:	0ae7c263          	blt	x15,x14,112cc <_malloc_r+0x334>
   1122c:	04c1aa83          	lw	x21,76(x3) # 14dec <__malloc_top_pad>
   11230:	03c1a703          	lw	x14,60(x3) # 14ddc <__malloc_sbrk_base>
   11234:	fff00793          	addi	x15,x0,-1
   11238:	01640a33          	add	x20,x8,x22
   1123c:	01548ab3          	add	x21,x9,x21
   11240:	3af70463          	beq	x14,x15,115e8 <_malloc_r+0x650>
   11244:	000017b7          	lui	x15,0x1
   11248:	00f78793          	addi	x15,x15,15 # 100f <exit-0xf085>
   1124c:	00fa8ab3          	add	x21,x21,x15
   11250:	fffff7b7          	lui	x15,0xfffff
   11254:	00fafab3          	and	x21,x21,x15
   11258:	000a8593          	addi	x11,x21,0
   1125c:	00098513          	addi	x10,x19,0
   11260:	58d000ef          	jal	x1,11fec <_sbrk_r>
   11264:	fff00793          	addi	x15,x0,-1
   11268:	00050b93          	addi	x23,x10,0
   1126c:	20f50463          	beq	x10,x15,11474 <_malloc_r+0x4dc>
   11270:	21456063          	bltu	x10,x20,11470 <_malloc_r+0x4d8>
   11274:	07418c13          	addi	x24,x3,116 # 14e14 <__malloc_current_mallinfo>
   11278:	000c2583          	lw	x11,0(x24)
   1127c:	00ba85b3          	add	x11,x21,x11
   11280:	00bc2023          	sw	x11,0(x24)
   11284:	00058713          	addi	x14,x11,0
   11288:	28aa1663          	bne	x20,x10,11514 <_malloc_r+0x57c>
   1128c:	01451793          	slli	x15,x10,0x14
   11290:	28079263          	bne	x15,x0,11514 <_malloc_r+0x57c>
   11294:	00892b83          	lw	x23,8(x18)
   11298:	015b07b3          	add	x15,x22,x21
   1129c:	0017e793          	ori	x15,x15,1
   112a0:	00fba223          	sw	x15,4(x23)
   112a4:	0481a683          	lw	x13,72(x3) # 14de8 <__malloc_max_sbrked_mem>
   112a8:	00b6f463          	bgeu	x13,x11,112b0 <_malloc_r+0x318>
   112ac:	04b1a423          	sw	x11,72(x3) # 14de8 <__malloc_max_sbrked_mem>
   112b0:	0441a683          	lw	x13,68(x3) # 14de4 <__malloc_max_total_mem>
   112b4:	00b6f463          	bgeu	x13,x11,112bc <_malloc_r+0x324>
   112b8:	04b1a223          	sw	x11,68(x3) # 14de4 <__malloc_max_total_mem>
   112bc:	000b8413          	addi	x8,x23,0
   112c0:	1bc0006f          	jal	x0,1147c <_malloc_r+0x4e4>
   112c4:	00492503          	lw	x10,4(x18)
   112c8:	e89ff06f          	jal	x0,11150 <_malloc_r+0x1b8>
   112cc:	0014e793          	ori	x15,x9,1
   112d0:	00f42223          	sw	x15,4(x8)
   112d4:	009404b3          	add	x9,x8,x9
   112d8:	00992423          	sw	x9,8(x18)
   112dc:	00176713          	ori	x14,x14,1
   112e0:	00098513          	addi	x10,x19,0
   112e4:	00e4a223          	sw	x14,4(x9)
   112e8:	7ac000ef          	jal	x1,11a94 <__malloc_unlock>
   112ec:	00840513          	addi	x10,x8,8
   112f0:	d49ff06f          	jal	x0,11038 <_malloc_r+0xa0>
   112f4:	00c42683          	lw	x13,12(x8)
   112f8:	00842603          	lw	x12,8(x8)
   112fc:	d19ff06f          	jal	x0,11014 <_malloc_r+0x7c>
   11300:	00c7a403          	lw	x8,12(x15) # fffff00c <__BSS_END__+0xfffea1d0>
   11304:	00258593          	addi	x11,x11,2
   11308:	dc878ce3          	beq	x15,x8,110e0 <_malloc_r+0x148>
   1130c:	cf9ff06f          	jal	x0,11004 <_malloc_r+0x6c>
   11310:	0097d713          	srli	x14,x15,0x9
   11314:	00400693          	addi	x13,x0,4
   11318:	14e6f263          	bgeu	x13,x14,1145c <_malloc_r+0x4c4>
   1131c:	01400693          	addi	x13,x0,20
   11320:	30e6ea63          	bltu	x13,x14,11634 <_malloc_r+0x69c>
   11324:	05c70613          	addi	x12,x14,92
   11328:	05b70693          	addi	x13,x14,91
   1132c:	00361613          	slli	x12,x12,0x3
   11330:	00c90633          	add	x12,x18,x12
   11334:	00062703          	lw	x14,0(x12)
   11338:	ff860613          	addi	x12,x12,-8
   1133c:	00e61863          	bne	x12,x14,1134c <_malloc_r+0x3b4>
   11340:	2b00006f          	jal	x0,115f0 <_malloc_r+0x658>
   11344:	00872703          	lw	x14,8(x14)
   11348:	00e60863          	beq	x12,x14,11358 <_malloc_r+0x3c0>
   1134c:	00472683          	lw	x13,4(x14)
   11350:	ffc6f693          	andi	x13,x13,-4
   11354:	fed7e8e3          	bltu	x15,x13,11344 <_malloc_r+0x3ac>
   11358:	00c72603          	lw	x12,12(x14)
   1135c:	00c42623          	sw	x12,12(x8)
   11360:	00e42423          	sw	x14,8(x8)
   11364:	00862423          	sw	x8,8(x12)
   11368:	00872623          	sw	x8,12(x14)
   1136c:	de5ff06f          	jal	x0,11150 <_malloc_r+0x1b8>
   11370:	01400713          	addi	x14,x0,20
   11374:	12f77663          	bgeu	x14,x15,114a0 <_malloc_r+0x508>
   11378:	05400713          	addi	x14,x0,84
   1137c:	2cf76a63          	bltu	x14,x15,11650 <_malloc_r+0x6b8>
   11380:	00c4d793          	srli	x15,x9,0xc
   11384:	06f78593          	addi	x11,x15,111
   11388:	06e78513          	addi	x10,x15,110
   1138c:	00359693          	slli	x13,x11,0x3
   11390:	d15ff06f          	jal	x0,110a4 <_malloc_r+0x10c>
   11394:	001e0e13          	addi	x28,x28,1
   11398:	003e7793          	andi	x15,x28,3
   1139c:	00850513          	addi	x10,x10,8
   113a0:	10078e63          	beq	x15,x0,114bc <_malloc_r+0x524>
   113a4:	00c52783          	lw	x15,12(x10)
   113a8:	dfdff06f          	jal	x0,111a4 <_malloc_r+0x20c>
   113ac:	00842603          	lw	x12,8(x8)
   113b0:	0014e593          	ori	x11,x9,1
   113b4:	00b42223          	sw	x11,4(x8)
   113b8:	00f62623          	sw	x15,12(x12)
   113bc:	00c7a423          	sw	x12,8(x15)
   113c0:	009404b3          	add	x9,x8,x9
   113c4:	00992a23          	sw	x9,20(x18)
   113c8:	00992823          	sw	x9,16(x18)
   113cc:	0016e793          	ori	x15,x13,1
   113d0:	0104a623          	sw	x16,12(x9)
   113d4:	0104a423          	sw	x16,8(x9)
   113d8:	00f4a223          	sw	x15,4(x9)
   113dc:	00e40733          	add	x14,x8,x14
   113e0:	00098513          	addi	x10,x19,0
   113e4:	00d72023          	sw	x13,0(x14)
   113e8:	6ac000ef          	jal	x1,11a94 <__malloc_unlock>
   113ec:	00840513          	addi	x10,x8,8
   113f0:	c49ff06f          	jal	x0,11038 <_malloc_r+0xa0>
   113f4:	00f407b3          	add	x15,x8,x15
   113f8:	0047a703          	lw	x14,4(x15)
   113fc:	00098513          	addi	x10,x19,0
   11400:	00176713          	ori	x14,x14,1
   11404:	00e7a223          	sw	x14,4(x15)
   11408:	68c000ef          	jal	x1,11a94 <__malloc_unlock>
   1140c:	00840513          	addi	x10,x8,8
   11410:	c29ff06f          	jal	x0,11038 <_malloc_r+0xa0>
   11414:	0034d593          	srli	x11,x9,0x3
   11418:	00848793          	addi	x15,x9,8
   1141c:	bd5ff06f          	jal	x0,10ff0 <_malloc_r+0x58>
   11420:	0014e693          	ori	x13,x9,1
   11424:	00d42223          	sw	x13,4(x8)
   11428:	009404b3          	add	x9,x8,x9
   1142c:	00992a23          	sw	x9,20(x18)
   11430:	00992823          	sw	x9,16(x18)
   11434:	00176693          	ori	x13,x14,1
   11438:	0104a623          	sw	x16,12(x9)
   1143c:	0104a423          	sw	x16,8(x9)
   11440:	00d4a223          	sw	x13,4(x9)
   11444:	00f407b3          	add	x15,x8,x15
   11448:	00098513          	addi	x10,x19,0
   1144c:	00e7a023          	sw	x14,0(x15)
   11450:	644000ef          	jal	x1,11a94 <__malloc_unlock>
   11454:	00840513          	addi	x10,x8,8
   11458:	be1ff06f          	jal	x0,11038 <_malloc_r+0xa0>
   1145c:	0067d713          	srli	x14,x15,0x6
   11460:	03970613          	addi	x12,x14,57
   11464:	03870693          	addi	x13,x14,56
   11468:	00361613          	slli	x12,x12,0x3
   1146c:	ec5ff06f          	jal	x0,11330 <_malloc_r+0x398>
   11470:	09240a63          	beq	x8,x18,11504 <_malloc_r+0x56c>
   11474:	00892403          	lw	x8,8(x18)
   11478:	00442783          	lw	x15,4(x8)
   1147c:	ffc7f793          	andi	x15,x15,-4
   11480:	40978733          	sub	x14,x15,x9
   11484:	0097e663          	bltu	x15,x9,11490 <_malloc_r+0x4f8>
   11488:	00f00793          	addi	x15,x0,15
   1148c:	e4e7c0e3          	blt	x15,x14,112cc <_malloc_r+0x334>
   11490:	00098513          	addi	x10,x19,0
   11494:	600000ef          	jal	x1,11a94 <__malloc_unlock>
   11498:	00000513          	addi	x10,x0,0
   1149c:	b9dff06f          	jal	x0,11038 <_malloc_r+0xa0>
   114a0:	05c78593          	addi	x11,x15,92
   114a4:	05b78513          	addi	x10,x15,91
   114a8:	00359693          	slli	x13,x11,0x3
   114ac:	bf9ff06f          	jal	x0,110a4 <_malloc_r+0x10c>
   114b0:	00832783          	lw	x15,8(x6)
   114b4:	fff58593          	addi	x11,x11,-1
   114b8:	24679663          	bne	x15,x6,11704 <_malloc_r+0x76c>
   114bc:	0035f793          	andi	x15,x11,3
   114c0:	ff830313          	addi	x6,x6,-8
   114c4:	fe0796e3          	bne	x15,x0,114b0 <_malloc_r+0x518>
   114c8:	00492703          	lw	x14,4(x18)
   114cc:	fff64793          	xori	x15,x12,-1
   114d0:	00e7f7b3          	and	x15,x15,x14
   114d4:	00f92223          	sw	x15,4(x18)
   114d8:	00161613          	slli	x12,x12,0x1
   114dc:	d2c7eae3          	bltu	x15,x12,11210 <_malloc_r+0x278>
   114e0:	d20608e3          	beq	x12,x0,11210 <_malloc_r+0x278>
   114e4:	00f67733          	and	x14,x12,x15
   114e8:	00071a63          	bne	x14,x0,114fc <_malloc_r+0x564>
   114ec:	00161613          	slli	x12,x12,0x1
   114f0:	00f67733          	and	x14,x12,x15
   114f4:	004e0e13          	addi	x28,x28,4
   114f8:	fe070ae3          	beq	x14,x0,114ec <_malloc_r+0x554>
   114fc:	000e0593          	addi	x11,x28,0
   11500:	c91ff06f          	jal	x0,11190 <_malloc_r+0x1f8>
   11504:	07418c13          	addi	x24,x3,116 # 14e14 <__malloc_current_mallinfo>
   11508:	000c2703          	lw	x14,0(x24)
   1150c:	00ea8733          	add	x14,x21,x14
   11510:	00ec2023          	sw	x14,0(x24)
   11514:	03c1a683          	lw	x13,60(x3) # 14ddc <__malloc_sbrk_base>
   11518:	fff00793          	addi	x15,x0,-1
   1151c:	14f68863          	beq	x13,x15,1166c <_malloc_r+0x6d4>
   11520:	414b87b3          	sub	x15,x23,x20
   11524:	00e787b3          	add	x15,x15,x14
   11528:	00fc2023          	sw	x15,0(x24)
   1152c:	007bfc93          	andi	x25,x23,7
   11530:	0c0c8c63          	beq	x25,x0,11608 <_malloc_r+0x670>
   11534:	00001737          	lui	x14,0x1
   11538:	419b8bb3          	sub	x23,x23,x25
   1153c:	00870593          	addi	x11,x14,8 # 1008 <exit-0xf08c>
   11540:	008b8b93          	addi	x23,x23,8
   11544:	419585b3          	sub	x11,x11,x25
   11548:	015b8ab3          	add	x21,x23,x21
   1154c:	415585b3          	sub	x11,x11,x21
   11550:	fff70713          	addi	x14,x14,-1
   11554:	00e5fa33          	and	x20,x11,x14
   11558:	000a0593          	addi	x11,x20,0
   1155c:	00098513          	addi	x10,x19,0
   11560:	28d000ef          	jal	x1,11fec <_sbrk_r>
   11564:	fff00793          	addi	x15,x0,-1
   11568:	14f50863          	beq	x10,x15,116b8 <_malloc_r+0x720>
   1156c:	41750533          	sub	x10,x10,x23
   11570:	01450ab3          	add	x21,x10,x20
   11574:	000c2703          	lw	x14,0(x24)
   11578:	01792423          	sw	x23,8(x18)
   1157c:	001ae793          	ori	x15,x21,1
   11580:	00ea05b3          	add	x11,x20,x14
   11584:	00bc2023          	sw	x11,0(x24)
   11588:	00fba223          	sw	x15,4(x23)
   1158c:	d1240ce3          	beq	x8,x18,112a4 <_malloc_r+0x30c>
   11590:	00f00693          	addi	x13,x0,15
   11594:	0f66f063          	bgeu	x13,x22,11674 <_malloc_r+0x6dc>
   11598:	00442703          	lw	x14,4(x8)
   1159c:	ff4b0793          	addi	x15,x22,-12
   115a0:	ff87f793          	andi	x15,x15,-8
   115a4:	00177713          	andi	x14,x14,1
   115a8:	00f76733          	or	x14,x14,x15
   115ac:	00e42223          	sw	x14,4(x8)
   115b0:	00500613          	addi	x12,x0,5
   115b4:	00f40733          	add	x14,x8,x15
   115b8:	00c72223          	sw	x12,4(x14)
   115bc:	00c72423          	sw	x12,8(x14)
   115c0:	00f6e663          	bltu	x13,x15,115cc <_malloc_r+0x634>
   115c4:	004ba783          	lw	x15,4(x23)
   115c8:	cddff06f          	jal	x0,112a4 <_malloc_r+0x30c>
   115cc:	00840593          	addi	x11,x8,8
   115d0:	00098513          	addi	x10,x19,0
   115d4:	36c010ef          	jal	x1,12940 <_free_r>
   115d8:	00892b83          	lw	x23,8(x18)
   115dc:	000c2583          	lw	x11,0(x24)
   115e0:	004ba783          	lw	x15,4(x23)
   115e4:	cc1ff06f          	jal	x0,112a4 <_malloc_r+0x30c>
   115e8:	010a8a93          	addi	x21,x21,16
   115ec:	c6dff06f          	jal	x0,11258 <_malloc_r+0x2c0>
   115f0:	4026d693          	srai	x13,x13,0x2
   115f4:	00100793          	addi	x15,x0,1
   115f8:	00d797b3          	sll	x15,x15,x13
   115fc:	00f56533          	or	x10,x10,x15
   11600:	00a92223          	sw	x10,4(x18)
   11604:	d59ff06f          	jal	x0,1135c <_malloc_r+0x3c4>
   11608:	015b85b3          	add	x11,x23,x21
   1160c:	40b005b3          	sub	x11,x0,x11
   11610:	01459593          	slli	x11,x11,0x14
   11614:	0145da13          	srli	x20,x11,0x14
   11618:	000a0593          	addi	x11,x20,0
   1161c:	00098513          	addi	x10,x19,0
   11620:	1cd000ef          	jal	x1,11fec <_sbrk_r>
   11624:	fff00793          	addi	x15,x0,-1
   11628:	f4f512e3          	bne	x10,x15,1156c <_malloc_r+0x5d4>
   1162c:	00000a13          	addi	x20,x0,0
   11630:	f45ff06f          	jal	x0,11574 <_malloc_r+0x5dc>
   11634:	05400693          	addi	x13,x0,84
   11638:	04e6e463          	bltu	x13,x14,11680 <_malloc_r+0x6e8>
   1163c:	00c7d713          	srli	x14,x15,0xc
   11640:	06f70613          	addi	x12,x14,111
   11644:	06e70693          	addi	x13,x14,110
   11648:	00361613          	slli	x12,x12,0x3
   1164c:	ce5ff06f          	jal	x0,11330 <_malloc_r+0x398>
   11650:	15400713          	addi	x14,x0,340
   11654:	04f76463          	bltu	x14,x15,1169c <_malloc_r+0x704>
   11658:	00f4d793          	srli	x15,x9,0xf
   1165c:	07878593          	addi	x11,x15,120
   11660:	07778513          	addi	x10,x15,119
   11664:	00359693          	slli	x13,x11,0x3
   11668:	a3dff06f          	jal	x0,110a4 <_malloc_r+0x10c>
   1166c:	0371ae23          	sw	x23,60(x3) # 14ddc <__malloc_sbrk_base>
   11670:	ebdff06f          	jal	x0,1152c <_malloc_r+0x594>
   11674:	00100793          	addi	x15,x0,1
   11678:	00fba223          	sw	x15,4(x23)
   1167c:	e15ff06f          	jal	x0,11490 <_malloc_r+0x4f8>
   11680:	15400693          	addi	x13,x0,340
   11684:	04e6e463          	bltu	x13,x14,116cc <_malloc_r+0x734>
   11688:	00f7d713          	srli	x14,x15,0xf
   1168c:	07870613          	addi	x12,x14,120
   11690:	07770693          	addi	x13,x14,119
   11694:	00361613          	slli	x12,x12,0x3
   11698:	c99ff06f          	jal	x0,11330 <_malloc_r+0x398>
   1169c:	55400713          	addi	x14,x0,1364
   116a0:	04f76463          	bltu	x14,x15,116e8 <_malloc_r+0x750>
   116a4:	0124d793          	srli	x15,x9,0x12
   116a8:	07d78593          	addi	x11,x15,125
   116ac:	07c78513          	addi	x10,x15,124
   116b0:	00359693          	slli	x13,x11,0x3
   116b4:	9f1ff06f          	jal	x0,110a4 <_malloc_r+0x10c>
   116b8:	ff8c8c93          	addi	x25,x25,-8
   116bc:	019a8ab3          	add	x21,x21,x25
   116c0:	417a8ab3          	sub	x21,x21,x23
   116c4:	00000a13          	addi	x20,x0,0
   116c8:	eadff06f          	jal	x0,11574 <_malloc_r+0x5dc>
   116cc:	55400693          	addi	x13,x0,1364
   116d0:	02e6e463          	bltu	x13,x14,116f8 <_malloc_r+0x760>
   116d4:	0127d713          	srli	x14,x15,0x12
   116d8:	07d70613          	addi	x12,x14,125
   116dc:	07c70693          	addi	x13,x14,124
   116e0:	00361613          	slli	x12,x12,0x3
   116e4:	c4dff06f          	jal	x0,11330 <_malloc_r+0x398>
   116e8:	3f800693          	addi	x13,x0,1016
   116ec:	07f00593          	addi	x11,x0,127
   116f0:	07e00513          	addi	x10,x0,126
   116f4:	9b1ff06f          	jal	x0,110a4 <_malloc_r+0x10c>
   116f8:	3f800613          	addi	x12,x0,1016
   116fc:	07e00693          	addi	x13,x0,126
   11700:	c31ff06f          	jal	x0,11330 <_malloc_r+0x398>
   11704:	00492783          	lw	x15,4(x18)
   11708:	dd1ff06f          	jal	x0,114d8 <_malloc_r+0x540>

0001170c <memchr>:
   1170c:	00357793          	andi	x15,x10,3
   11710:	0ff5f693          	andi	x13,x11,255
   11714:	02078e63          	beq	x15,x0,11750 <memchr+0x44>
   11718:	fff60793          	addi	x15,x12,-1
   1171c:	02060663          	beq	x12,x0,11748 <memchr+0x3c>
   11720:	fff00613          	addi	x12,x0,-1
   11724:	0180006f          	jal	x0,1173c <memchr+0x30>
   11728:	00150513          	addi	x10,x10,1
   1172c:	00357713          	andi	x14,x10,3
   11730:	02070263          	beq	x14,x0,11754 <memchr+0x48>
   11734:	fff78793          	addi	x15,x15,-1
   11738:	00c78863          	beq	x15,x12,11748 <memchr+0x3c>
   1173c:	00054703          	lbu	x14,0(x10)
   11740:	fed714e3          	bne	x14,x13,11728 <memchr+0x1c>
   11744:	00008067          	jalr	x0,0(x1)
   11748:	00000513          	addi	x10,x0,0
   1174c:	00008067          	jalr	x0,0(x1)
   11750:	00060793          	addi	x15,x12,0
   11754:	00300713          	addi	x14,x0,3
   11758:	04f77c63          	bgeu	x14,x15,117b0 <memchr+0xa4>
   1175c:	0ff5f593          	andi	x11,x11,255
   11760:	00859713          	slli	x14,x11,0x8
   11764:	00b705b3          	add	x11,x14,x11
   11768:	01059713          	slli	x14,x11,0x10
   1176c:	feff08b7          	lui	x17,0xfeff0
   11770:	80808837          	lui	x16,0x80808
   11774:	00e585b3          	add	x11,x11,x14
   11778:	eff88893          	addi	x17,x17,-257 # fefefeff <__BSS_END__+0xfefdb0c3>
   1177c:	08080813          	addi	x16,x16,128 # 80808080 <__BSS_END__+0x807f3244>
   11780:	00300313          	addi	x6,x0,3
   11784:	0100006f          	jal	x0,11794 <memchr+0x88>
   11788:	ffc78793          	addi	x15,x15,-4
   1178c:	00450513          	addi	x10,x10,4
   11790:	02f37063          	bgeu	x6,x15,117b0 <memchr+0xa4>
   11794:	00052703          	lw	x14,0(x10)
   11798:	00e5c733          	xor	x14,x11,x14
   1179c:	01170633          	add	x12,x14,x17
   117a0:	fff74713          	xori	x14,x14,-1
   117a4:	00e67733          	and	x14,x12,x14
   117a8:	01077733          	and	x14,x14,x16
   117ac:	fc070ee3          	beq	x14,x0,11788 <memchr+0x7c>
   117b0:	00f50733          	add	x14,x10,x15
   117b4:	00079863          	bne	x15,x0,117c4 <memchr+0xb8>
   117b8:	f91ff06f          	jal	x0,11748 <memchr+0x3c>
   117bc:	00150513          	addi	x10,x10,1
   117c0:	f8a704e3          	beq	x14,x10,11748 <memchr+0x3c>
   117c4:	00054783          	lbu	x15,0(x10)
   117c8:	fed79ae3          	bne	x15,x13,117bc <memchr+0xb0>
   117cc:	00008067          	jalr	x0,0(x1)

000117d0 <memcpy>:
   117d0:	00b547b3          	xor	x15,x10,x11
   117d4:	0037f793          	andi	x15,x15,3
   117d8:	00c508b3          	add	x17,x10,x12
   117dc:	06079463          	bne	x15,x0,11844 <memcpy+0x74>
   117e0:	00300793          	addi	x15,x0,3
   117e4:	06c7f063          	bgeu	x15,x12,11844 <memcpy+0x74>
   117e8:	00357793          	andi	x15,x10,3
   117ec:	00050713          	addi	x14,x10,0
   117f0:	06079a63          	bne	x15,x0,11864 <memcpy+0x94>
   117f4:	ffc8f613          	andi	x12,x17,-4
   117f8:	40e606b3          	sub	x13,x12,x14
   117fc:	02000793          	addi	x15,x0,32
   11800:	08d7ce63          	blt	x15,x13,1189c <memcpy+0xcc>
   11804:	00058693          	addi	x13,x11,0
   11808:	00070793          	addi	x15,x14,0
   1180c:	02c77863          	bgeu	x14,x12,1183c <memcpy+0x6c>
   11810:	0006a803          	lw	x16,0(x13)
   11814:	00478793          	addi	x15,x15,4
   11818:	00468693          	addi	x13,x13,4
   1181c:	ff07ae23          	sw	x16,-4(x15)
   11820:	fec7e8e3          	bltu	x15,x12,11810 <memcpy+0x40>
   11824:	fff60793          	addi	x15,x12,-1
   11828:	40e787b3          	sub	x15,x15,x14
   1182c:	ffc7f793          	andi	x15,x15,-4
   11830:	00478793          	addi	x15,x15,4
   11834:	00f70733          	add	x14,x14,x15
   11838:	00f585b3          	add	x11,x11,x15
   1183c:	01176863          	bltu	x14,x17,1184c <memcpy+0x7c>
   11840:	00008067          	jalr	x0,0(x1)
   11844:	00050713          	addi	x14,x10,0
   11848:	05157863          	bgeu	x10,x17,11898 <memcpy+0xc8>
   1184c:	0005c783          	lbu	x15,0(x11)
   11850:	00170713          	addi	x14,x14,1
   11854:	00158593          	addi	x11,x11,1
   11858:	fef70fa3          	sb	x15,-1(x14)
   1185c:	fee898e3          	bne	x17,x14,1184c <memcpy+0x7c>
   11860:	00008067          	jalr	x0,0(x1)
   11864:	0005c683          	lbu	x13,0(x11)
   11868:	00170713          	addi	x14,x14,1
   1186c:	00377793          	andi	x15,x14,3
   11870:	fed70fa3          	sb	x13,-1(x14)
   11874:	00158593          	addi	x11,x11,1
   11878:	f6078ee3          	beq	x15,x0,117f4 <memcpy+0x24>
   1187c:	0005c683          	lbu	x13,0(x11)
   11880:	00170713          	addi	x14,x14,1
   11884:	00377793          	andi	x15,x14,3
   11888:	fed70fa3          	sb	x13,-1(x14)
   1188c:	00158593          	addi	x11,x11,1
   11890:	fc079ae3          	bne	x15,x0,11864 <memcpy+0x94>
   11894:	f61ff06f          	jal	x0,117f4 <memcpy+0x24>
   11898:	00008067          	jalr	x0,0(x1)
   1189c:	ff010113          	addi	x2,x2,-16
   118a0:	00812623          	sw	x8,12(x2)
   118a4:	02000413          	addi	x8,x0,32
   118a8:	0005a383          	lw	x7,0(x11)
   118ac:	0045a283          	lw	x5,4(x11)
   118b0:	0085af83          	lw	x31,8(x11)
   118b4:	00c5af03          	lw	x30,12(x11)
   118b8:	0105ae83          	lw	x29,16(x11)
   118bc:	0145ae03          	lw	x28,20(x11)
   118c0:	0185a303          	lw	x6,24(x11)
   118c4:	01c5a803          	lw	x16,28(x11)
   118c8:	0205a683          	lw	x13,32(x11)
   118cc:	02470713          	addi	x14,x14,36
   118d0:	40e607b3          	sub	x15,x12,x14
   118d4:	fc772e23          	sw	x7,-36(x14)
   118d8:	fe572023          	sw	x5,-32(x14)
   118dc:	fff72223          	sw	x31,-28(x14)
   118e0:	ffe72423          	sw	x30,-24(x14)
   118e4:	ffd72623          	sw	x29,-20(x14)
   118e8:	ffc72823          	sw	x28,-16(x14)
   118ec:	fe672a23          	sw	x6,-12(x14)
   118f0:	ff072c23          	sw	x16,-8(x14)
   118f4:	fed72e23          	sw	x13,-4(x14)
   118f8:	02458593          	addi	x11,x11,36
   118fc:	faf446e3          	blt	x8,x15,118a8 <memcpy+0xd8>
   11900:	00058693          	addi	x13,x11,0
   11904:	00070793          	addi	x15,x14,0
   11908:	02c77863          	bgeu	x14,x12,11938 <memcpy+0x168>
   1190c:	0006a803          	lw	x16,0(x13)
   11910:	00478793          	addi	x15,x15,4
   11914:	00468693          	addi	x13,x13,4
   11918:	ff07ae23          	sw	x16,-4(x15)
   1191c:	fec7e8e3          	bltu	x15,x12,1190c <memcpy+0x13c>
   11920:	fff60793          	addi	x15,x12,-1
   11924:	40e787b3          	sub	x15,x15,x14
   11928:	ffc7f793          	andi	x15,x15,-4
   1192c:	00478793          	addi	x15,x15,4
   11930:	00f70733          	add	x14,x14,x15
   11934:	00f585b3          	add	x11,x11,x15
   11938:	01176863          	bltu	x14,x17,11948 <memcpy+0x178>
   1193c:	00c12403          	lw	x8,12(x2)
   11940:	01010113          	addi	x2,x2,16
   11944:	00008067          	jalr	x0,0(x1)
   11948:	0005c783          	lbu	x15,0(x11)
   1194c:	00170713          	addi	x14,x14,1
   11950:	00158593          	addi	x11,x11,1
   11954:	fef70fa3          	sb	x15,-1(x14)
   11958:	fee882e3          	beq	x17,x14,1193c <memcpy+0x16c>
   1195c:	0005c783          	lbu	x15,0(x11)
   11960:	00170713          	addi	x14,x14,1
   11964:	00158593          	addi	x11,x11,1
   11968:	fef70fa3          	sb	x15,-1(x14)
   1196c:	fce89ee3          	bne	x17,x14,11948 <memcpy+0x178>
   11970:	fcdff06f          	jal	x0,1193c <memcpy+0x16c>

00011974 <memmove>:
   11974:	02a5f663          	bgeu	x11,x10,119a0 <memmove+0x2c>
   11978:	00c58733          	add	x14,x11,x12
   1197c:	02e57263          	bgeu	x10,x14,119a0 <memmove+0x2c>
   11980:	00c507b3          	add	x15,x10,x12
   11984:	04060663          	beq	x12,x0,119d0 <memmove+0x5c>
   11988:	fff74683          	lbu	x13,-1(x14)
   1198c:	fff78793          	addi	x15,x15,-1
   11990:	fff70713          	addi	x14,x14,-1
   11994:	00d78023          	sb	x13,0(x15)
   11998:	fef518e3          	bne	x10,x15,11988 <memmove+0x14>
   1199c:	00008067          	jalr	x0,0(x1)
   119a0:	00f00793          	addi	x15,x0,15
   119a4:	02c7e863          	bltu	x15,x12,119d4 <memmove+0x60>
   119a8:	00050793          	addi	x15,x10,0
   119ac:	fff60693          	addi	x13,x12,-1
   119b0:	0c060a63          	beq	x12,x0,11a84 <memmove+0x110>
   119b4:	00168693          	addi	x13,x13,1
   119b8:	00d786b3          	add	x13,x15,x13
   119bc:	0005c703          	lbu	x14,0(x11)
   119c0:	00178793          	addi	x15,x15,1
   119c4:	00158593          	addi	x11,x11,1
   119c8:	fee78fa3          	sb	x14,-1(x15)
   119cc:	fed798e3          	bne	x15,x13,119bc <memmove+0x48>
   119d0:	00008067          	jalr	x0,0(x1)
   119d4:	00b567b3          	or	x15,x10,x11
   119d8:	0037f793          	andi	x15,x15,3
   119dc:	08079e63          	bne	x15,x0,11a78 <memmove+0x104>
   119e0:	ff060893          	addi	x17,x12,-16
   119e4:	ff08f893          	andi	x17,x17,-16
   119e8:	01088893          	addi	x17,x17,16
   119ec:	011507b3          	add	x15,x10,x17
   119f0:	00058693          	addi	x13,x11,0
   119f4:	00050713          	addi	x14,x10,0
   119f8:	0006a803          	lw	x16,0(x13)
   119fc:	01068693          	addi	x13,x13,16
   11a00:	01070713          	addi	x14,x14,16
   11a04:	ff072823          	sw	x16,-16(x14)
   11a08:	ff46a803          	lw	x16,-12(x13)
   11a0c:	ff072a23          	sw	x16,-12(x14)
   11a10:	ff86a803          	lw	x16,-8(x13)
   11a14:	ff072c23          	sw	x16,-8(x14)
   11a18:	ffc6a803          	lw	x16,-4(x13)
   11a1c:	ff072e23          	sw	x16,-4(x14)
   11a20:	fcf71ce3          	bne	x14,x15,119f8 <memmove+0x84>
   11a24:	00c67713          	andi	x14,x12,12
   11a28:	011585b3          	add	x11,x11,x17
   11a2c:	00f67813          	andi	x16,x12,15
   11a30:	04070c63          	beq	x14,x0,11a88 <memmove+0x114>
   11a34:	00058693          	addi	x13,x11,0
   11a38:	00078713          	addi	x14,x15,0
   11a3c:	01078eb3          	add	x29,x15,x16
   11a40:	00300e13          	addi	x28,x0,3
   11a44:	0006a303          	lw	x6,0(x13)
   11a48:	00470713          	addi	x14,x14,4
   11a4c:	40ee88b3          	sub	x17,x29,x14
   11a50:	fe672e23          	sw	x6,-4(x14)
   11a54:	00468693          	addi	x13,x13,4
   11a58:	ff1e66e3          	bltu	x28,x17,11a44 <memmove+0xd0>
   11a5c:	ffc80713          	addi	x14,x16,-4
   11a60:	ffc77713          	andi	x14,x14,-4
   11a64:	00470713          	addi	x14,x14,4
   11a68:	00367613          	andi	x12,x12,3
   11a6c:	00e787b3          	add	x15,x15,x14
   11a70:	00e585b3          	add	x11,x11,x14
   11a74:	f39ff06f          	jal	x0,119ac <memmove+0x38>
   11a78:	fff60693          	addi	x13,x12,-1
   11a7c:	00050793          	addi	x15,x10,0
   11a80:	f35ff06f          	jal	x0,119b4 <memmove+0x40>
   11a84:	00008067          	jalr	x0,0(x1)
   11a88:	00080613          	addi	x12,x16,0
   11a8c:	f21ff06f          	jal	x0,119ac <memmove+0x38>

00011a90 <__malloc_lock>:
   11a90:	00008067          	jalr	x0,0(x1)

00011a94 <__malloc_unlock>:
   11a94:	00008067          	jalr	x0,0(x1)

00011a98 <_realloc_r>:
   11a98:	fd010113          	addi	x2,x2,-48
   11a9c:	02912223          	sw	x9,36(x2)
   11aa0:	02112623          	sw	x1,44(x2)
   11aa4:	02812423          	sw	x8,40(x2)
   11aa8:	03212023          	sw	x18,32(x2)
   11aac:	01312e23          	sw	x19,28(x2)
   11ab0:	01412c23          	sw	x20,24(x2)
   11ab4:	01512a23          	sw	x21,20(x2)
   11ab8:	01612823          	sw	x22,16(x2)
   11abc:	01712623          	sw	x23,12(x2)
   11ac0:	01812423          	sw	x24,8(x2)
   11ac4:	00060493          	addi	x9,x12,0
   11ac8:	1c058063          	beq	x11,x0,11c88 <_realloc_r+0x1f0>
   11acc:	00058413          	addi	x8,x11,0
   11ad0:	00050913          	addi	x18,x10,0
   11ad4:	fbdff0ef          	jal	x1,11a90 <__malloc_lock>
   11ad8:	ffc42703          	lw	x14,-4(x8)
   11adc:	00b48793          	addi	x15,x9,11
   11ae0:	01600693          	addi	x13,x0,22
   11ae4:	ff840a93          	addi	x21,x8,-8
   11ae8:	ffc77993          	andi	x19,x14,-4
   11aec:	0ef6f463          	bgeu	x13,x15,11bd4 <_realloc_r+0x13c>
   11af0:	ff87fa13          	andi	x20,x15,-8
   11af4:	0e07c463          	blt	x15,x0,11bdc <_realloc_r+0x144>
   11af8:	0e9a6263          	bltu	x20,x9,11bdc <_realloc_r+0x144>
   11afc:	1149d263          	bge	x19,x20,11c00 <_realloc_r+0x168>
   11b00:	c2818c13          	addi	x24,x3,-984 # 149c8 <__malloc_av_>
   11b04:	008c2603          	lw	x12,8(x24)
   11b08:	013a86b3          	add	x13,x21,x19
   11b0c:	0046a783          	lw	x15,4(x13)
   11b10:	1cd60e63          	beq	x12,x13,11cec <_realloc_r+0x254>
   11b14:	ffe7f613          	andi	x12,x15,-2
   11b18:	00c68633          	add	x12,x13,x12
   11b1c:	00462603          	lw	x12,4(x12)
   11b20:	00167613          	andi	x12,x12,1
   11b24:	14061463          	bne	x12,x0,11c6c <_realloc_r+0x1d4>
   11b28:	ffc7f793          	andi	x15,x15,-4
   11b2c:	00f98633          	add	x12,x19,x15
   11b30:	0b465e63          	bge	x12,x20,11bec <_realloc_r+0x154>
   11b34:	00177713          	andi	x14,x14,1
   11b38:	02071463          	bne	x14,x0,11b60 <_realloc_r+0xc8>
   11b3c:	ff842b83          	lw	x23,-8(x8)
   11b40:	417a8bb3          	sub	x23,x21,x23
   11b44:	004ba703          	lw	x14,4(x23)
   11b48:	ffc77713          	andi	x14,x14,-4
   11b4c:	00e787b3          	add	x15,x15,x14
   11b50:	01378b33          	add	x22,x15,x19
   11b54:	334b5463          	bge	x22,x20,11e7c <_realloc_r+0x3e4>
   11b58:	00e98b33          	add	x22,x19,x14
   11b5c:	294b5663          	bge	x22,x20,11de8 <_realloc_r+0x350>
   11b60:	00048593          	addi	x11,x9,0
   11b64:	00090513          	addi	x10,x18,0
   11b68:	c30ff0ef          	jal	x1,10f98 <_malloc_r>
   11b6c:	00050493          	addi	x9,x10,0
   11b70:	40050263          	beq	x10,x0,11f74 <_realloc_r+0x4dc>
   11b74:	ffc42783          	lw	x15,-4(x8)
   11b78:	ff850713          	addi	x14,x10,-8
   11b7c:	ffe7f793          	andi	x15,x15,-2
   11b80:	00fa87b3          	add	x15,x21,x15
   11b84:	24e78a63          	beq	x15,x14,11dd8 <_realloc_r+0x340>
   11b88:	ffc98613          	addi	x12,x19,-4
   11b8c:	02400793          	addi	x15,x0,36
   11b90:	2ec7e063          	bltu	x15,x12,11e70 <_realloc_r+0x3d8>
   11b94:	01300713          	addi	x14,x0,19
   11b98:	20c76e63          	bltu	x14,x12,11db4 <_realloc_r+0x31c>
   11b9c:	00050793          	addi	x15,x10,0
   11ba0:	00040713          	addi	x14,x8,0
   11ba4:	00072683          	lw	x13,0(x14)
   11ba8:	00d7a023          	sw	x13,0(x15)
   11bac:	00472683          	lw	x13,4(x14)
   11bb0:	00d7a223          	sw	x13,4(x15)
   11bb4:	00872703          	lw	x14,8(x14)
   11bb8:	00e7a423          	sw	x14,8(x15)
   11bbc:	00090513          	addi	x10,x18,0
   11bc0:	00040593          	addi	x11,x8,0
   11bc4:	57d000ef          	jal	x1,12940 <_free_r>
   11bc8:	00090513          	addi	x10,x18,0
   11bcc:	ec9ff0ef          	jal	x1,11a94 <__malloc_unlock>
   11bd0:	0680006f          	jal	x0,11c38 <_realloc_r+0x1a0>
   11bd4:	01000a13          	addi	x20,x0,16
   11bd8:	f29a72e3          	bgeu	x20,x9,11afc <_realloc_r+0x64>
   11bdc:	00c00793          	addi	x15,x0,12
   11be0:	00f92023          	sw	x15,0(x18)
   11be4:	00000493          	addi	x9,x0,0
   11be8:	0500006f          	jal	x0,11c38 <_realloc_r+0x1a0>
   11bec:	00c6a783          	lw	x15,12(x13)
   11bf0:	0086a703          	lw	x14,8(x13)
   11bf4:	00060993          	addi	x19,x12,0
   11bf8:	00f72623          	sw	x15,12(x14)
   11bfc:	00e7a423          	sw	x14,8(x15)
   11c00:	004aa783          	lw	x15,4(x21)
   11c04:	414986b3          	sub	x13,x19,x20
   11c08:	00f00613          	addi	x12,x0,15
   11c0c:	0017f793          	andi	x15,x15,1
   11c10:	013a8733          	add	x14,x21,x19
   11c14:	0ad66463          	bltu	x12,x13,11cbc <_realloc_r+0x224>
   11c18:	0137e7b3          	or	x15,x15,x19
   11c1c:	00faa223          	sw	x15,4(x21)
   11c20:	00472783          	lw	x15,4(x14)
   11c24:	0017e793          	ori	x15,x15,1
   11c28:	00f72223          	sw	x15,4(x14)
   11c2c:	00090513          	addi	x10,x18,0
   11c30:	e65ff0ef          	jal	x1,11a94 <__malloc_unlock>
   11c34:	00040493          	addi	x9,x8,0
   11c38:	02c12083          	lw	x1,44(x2)
   11c3c:	02812403          	lw	x8,40(x2)
   11c40:	02012903          	lw	x18,32(x2)
   11c44:	01c12983          	lw	x19,28(x2)
   11c48:	01812a03          	lw	x20,24(x2)
   11c4c:	01412a83          	lw	x21,20(x2)
   11c50:	01012b03          	lw	x22,16(x2)
   11c54:	00c12b83          	lw	x23,12(x2)
   11c58:	00812c03          	lw	x24,8(x2)
   11c5c:	00048513          	addi	x10,x9,0
   11c60:	02412483          	lw	x9,36(x2)
   11c64:	03010113          	addi	x2,x2,48
   11c68:	00008067          	jalr	x0,0(x1)
   11c6c:	00177713          	andi	x14,x14,1
   11c70:	ee0718e3          	bne	x14,x0,11b60 <_realloc_r+0xc8>
   11c74:	ff842b83          	lw	x23,-8(x8)
   11c78:	417a8bb3          	sub	x23,x21,x23
   11c7c:	004ba703          	lw	x14,4(x23)
   11c80:	ffc77713          	andi	x14,x14,-4
   11c84:	ed5ff06f          	jal	x0,11b58 <_realloc_r+0xc0>
   11c88:	02812403          	lw	x8,40(x2)
   11c8c:	02c12083          	lw	x1,44(x2)
   11c90:	02412483          	lw	x9,36(x2)
   11c94:	02012903          	lw	x18,32(x2)
   11c98:	01c12983          	lw	x19,28(x2)
   11c9c:	01812a03          	lw	x20,24(x2)
   11ca0:	01412a83          	lw	x21,20(x2)
   11ca4:	01012b03          	lw	x22,16(x2)
   11ca8:	00c12b83          	lw	x23,12(x2)
   11cac:	00812c03          	lw	x24,8(x2)
   11cb0:	00060593          	addi	x11,x12,0
   11cb4:	03010113          	addi	x2,x2,48
   11cb8:	ae0ff06f          	jal	x0,10f98 <_malloc_r>
   11cbc:	0147e7b3          	or	x15,x15,x20
   11cc0:	00faa223          	sw	x15,4(x21)
   11cc4:	014a85b3          	add	x11,x21,x20
   11cc8:	0016e693          	ori	x13,x13,1
   11ccc:	00d5a223          	sw	x13,4(x11)
   11cd0:	00472783          	lw	x15,4(x14)
   11cd4:	00858593          	addi	x11,x11,8
   11cd8:	00090513          	addi	x10,x18,0
   11cdc:	0017e793          	ori	x15,x15,1
   11ce0:	00f72223          	sw	x15,4(x14)
   11ce4:	45d000ef          	jal	x1,12940 <_free_r>
   11ce8:	f45ff06f          	jal	x0,11c2c <_realloc_r+0x194>
   11cec:	ffc7f793          	andi	x15,x15,-4
   11cf0:	013786b3          	add	x13,x15,x19
   11cf4:	010a0613          	addi	x12,x20,16
   11cf8:	22c6de63          	bge	x13,x12,11f34 <_realloc_r+0x49c>
   11cfc:	00177713          	andi	x14,x14,1
   11d00:	e60710e3          	bne	x14,x0,11b60 <_realloc_r+0xc8>
   11d04:	ff842b83          	lw	x23,-8(x8)
   11d08:	417a8bb3          	sub	x23,x21,x23
   11d0c:	004ba703          	lw	x14,4(x23)
   11d10:	ffc77713          	andi	x14,x14,-4
   11d14:	00e787b3          	add	x15,x15,x14
   11d18:	01378b33          	add	x22,x15,x19
   11d1c:	e2cb4ee3          	blt	x22,x12,11b58 <_realloc_r+0xc0>
   11d20:	00cba783          	lw	x15,12(x23)
   11d24:	008ba703          	lw	x14,8(x23)
   11d28:	ffc98613          	addi	x12,x19,-4
   11d2c:	02400693          	addi	x13,x0,36
   11d30:	00f72623          	sw	x15,12(x14)
   11d34:	00e7a423          	sw	x14,8(x15)
   11d38:	008b8493          	addi	x9,x23,8
   11d3c:	26c6e263          	bltu	x13,x12,11fa0 <_realloc_r+0x508>
   11d40:	01300713          	addi	x14,x0,19
   11d44:	00048793          	addi	x15,x9,0
   11d48:	02c77263          	bgeu	x14,x12,11d6c <_realloc_r+0x2d4>
   11d4c:	00042703          	lw	x14,0(x8)
   11d50:	01b00793          	addi	x15,x0,27
   11d54:	00eba423          	sw	x14,8(x23)
   11d58:	00442703          	lw	x14,4(x8)
   11d5c:	00eba623          	sw	x14,12(x23)
   11d60:	24c7e863          	bltu	x15,x12,11fb0 <_realloc_r+0x518>
   11d64:	00840413          	addi	x8,x8,8
   11d68:	010b8793          	addi	x15,x23,16
   11d6c:	00042703          	lw	x14,0(x8)
   11d70:	00e7a023          	sw	x14,0(x15)
   11d74:	00442703          	lw	x14,4(x8)
   11d78:	00e7a223          	sw	x14,4(x15)
   11d7c:	00842703          	lw	x14,8(x8)
   11d80:	00e7a423          	sw	x14,8(x15)
   11d84:	014b8733          	add	x14,x23,x20
   11d88:	414b0b33          	sub	x22,x22,x20
   11d8c:	00ec2423          	sw	x14,8(x24)
   11d90:	001b6793          	ori	x15,x22,1
   11d94:	00f72223          	sw	x15,4(x14)
   11d98:	004ba783          	lw	x15,4(x23)
   11d9c:	00090513          	addi	x10,x18,0
   11da0:	0017f793          	andi	x15,x15,1
   11da4:	0147e7b3          	or	x15,x15,x20
   11da8:	00fba223          	sw	x15,4(x23)
   11dac:	ce9ff0ef          	jal	x1,11a94 <__malloc_unlock>
   11db0:	e89ff06f          	jal	x0,11c38 <_realloc_r+0x1a0>
   11db4:	00042683          	lw	x13,0(x8)
   11db8:	01b00713          	addi	x14,x0,27
   11dbc:	00d52023          	sw	x13,0(x10)
   11dc0:	00442683          	lw	x13,4(x8)
   11dc4:	00d52223          	sw	x13,4(x10)
   11dc8:	14c76663          	bltu	x14,x12,11f14 <_realloc_r+0x47c>
   11dcc:	00840713          	addi	x14,x8,8
   11dd0:	00850793          	addi	x15,x10,8
   11dd4:	dd1ff06f          	jal	x0,11ba4 <_realloc_r+0x10c>
   11dd8:	ffc52783          	lw	x15,-4(x10)
   11ddc:	ffc7f793          	andi	x15,x15,-4
   11de0:	00f989b3          	add	x19,x19,x15
   11de4:	e1dff06f          	jal	x0,11c00 <_realloc_r+0x168>
   11de8:	00cba783          	lw	x15,12(x23)
   11dec:	008ba703          	lw	x14,8(x23)
   11df0:	ffc98613          	addi	x12,x19,-4
   11df4:	02400693          	addi	x13,x0,36
   11df8:	00f72623          	sw	x15,12(x14)
   11dfc:	00e7a423          	sw	x14,8(x15)
   11e00:	008b8493          	addi	x9,x23,8
   11e04:	10c6e063          	bltu	x13,x12,11f04 <_realloc_r+0x46c>
   11e08:	01300713          	addi	x14,x0,19
   11e0c:	00048793          	addi	x15,x9,0
   11e10:	02c77c63          	bgeu	x14,x12,11e48 <_realloc_r+0x3b0>
   11e14:	00042703          	lw	x14,0(x8)
   11e18:	01b00793          	addi	x15,x0,27
   11e1c:	00eba423          	sw	x14,8(x23)
   11e20:	00442703          	lw	x14,4(x8)
   11e24:	00eba623          	sw	x14,12(x23)
   11e28:	14c7f063          	bgeu	x15,x12,11f68 <_realloc_r+0x4d0>
   11e2c:	00842783          	lw	x15,8(x8)
   11e30:	00fba823          	sw	x15,16(x23)
   11e34:	00c42783          	lw	x15,12(x8)
   11e38:	00fbaa23          	sw	x15,20(x23)
   11e3c:	0ad60663          	beq	x12,x13,11ee8 <_realloc_r+0x450>
   11e40:	01040413          	addi	x8,x8,16
   11e44:	018b8793          	addi	x15,x23,24
   11e48:	00042703          	lw	x14,0(x8)
   11e4c:	00e7a023          	sw	x14,0(x15)
   11e50:	00442703          	lw	x14,4(x8)
   11e54:	00e7a223          	sw	x14,4(x15)
   11e58:	00842703          	lw	x14,8(x8)
   11e5c:	00e7a423          	sw	x14,8(x15)
   11e60:	00048413          	addi	x8,x9,0
   11e64:	000b0993          	addi	x19,x22,0
   11e68:	000b8a93          	addi	x21,x23,0
   11e6c:	d95ff06f          	jal	x0,11c00 <_realloc_r+0x168>
   11e70:	00040593          	addi	x11,x8,0
   11e74:	b01ff0ef          	jal	x1,11974 <memmove>
   11e78:	d45ff06f          	jal	x0,11bbc <_realloc_r+0x124>
   11e7c:	00c6a783          	lw	x15,12(x13)
   11e80:	0086a703          	lw	x14,8(x13)
   11e84:	ffc98613          	addi	x12,x19,-4
   11e88:	02400693          	addi	x13,x0,36
   11e8c:	00f72623          	sw	x15,12(x14)
   11e90:	00e7a423          	sw	x14,8(x15)
   11e94:	008ba703          	lw	x14,8(x23)
   11e98:	00cba783          	lw	x15,12(x23)
   11e9c:	008b8493          	addi	x9,x23,8
   11ea0:	00f72623          	sw	x15,12(x14)
   11ea4:	00e7a423          	sw	x14,8(x15)
   11ea8:	04c6ee63          	bltu	x13,x12,11f04 <_realloc_r+0x46c>
   11eac:	01300713          	addi	x14,x0,19
   11eb0:	00048793          	addi	x15,x9,0
   11eb4:	f8c77ae3          	bgeu	x14,x12,11e48 <_realloc_r+0x3b0>
   11eb8:	00042703          	lw	x14,0(x8)
   11ebc:	01b00793          	addi	x15,x0,27
   11ec0:	00eba423          	sw	x14,8(x23)
   11ec4:	00442703          	lw	x14,4(x8)
   11ec8:	00eba623          	sw	x14,12(x23)
   11ecc:	08c7fe63          	bgeu	x15,x12,11f68 <_realloc_r+0x4d0>
   11ed0:	00842703          	lw	x14,8(x8)
   11ed4:	02400793          	addi	x15,x0,36
   11ed8:	00eba823          	sw	x14,16(x23)
   11edc:	00c42703          	lw	x14,12(x8)
   11ee0:	00ebaa23          	sw	x14,20(x23)
   11ee4:	f4f61ee3          	bne	x12,x15,11e40 <_realloc_r+0x3a8>
   11ee8:	01042703          	lw	x14,16(x8)
   11eec:	020b8793          	addi	x15,x23,32
   11ef0:	01840413          	addi	x8,x8,24
   11ef4:	00ebac23          	sw	x14,24(x23)
   11ef8:	ffc42703          	lw	x14,-4(x8)
   11efc:	00ebae23          	sw	x14,28(x23)
   11f00:	f49ff06f          	jal	x0,11e48 <_realloc_r+0x3b0>
   11f04:	00040593          	addi	x11,x8,0
   11f08:	00048513          	addi	x10,x9,0
   11f0c:	a69ff0ef          	jal	x1,11974 <memmove>
   11f10:	f51ff06f          	jal	x0,11e60 <_realloc_r+0x3c8>
   11f14:	00842703          	lw	x14,8(x8)
   11f18:	00e52423          	sw	x14,8(x10)
   11f1c:	00c42703          	lw	x14,12(x8)
   11f20:	00e52623          	sw	x14,12(x10)
   11f24:	06f60063          	beq	x12,x15,11f84 <_realloc_r+0x4ec>
   11f28:	01040713          	addi	x14,x8,16
   11f2c:	01050793          	addi	x15,x10,16
   11f30:	c75ff06f          	jal	x0,11ba4 <_realloc_r+0x10c>
   11f34:	014a8ab3          	add	x21,x21,x20
   11f38:	414686b3          	sub	x13,x13,x20
   11f3c:	015c2423          	sw	x21,8(x24)
   11f40:	0016e793          	ori	x15,x13,1
   11f44:	00faa223          	sw	x15,4(x21)
   11f48:	ffc42783          	lw	x15,-4(x8)
   11f4c:	00090513          	addi	x10,x18,0
   11f50:	00040493          	addi	x9,x8,0
   11f54:	0017f793          	andi	x15,x15,1
   11f58:	0147e7b3          	or	x15,x15,x20
   11f5c:	fef42e23          	sw	x15,-4(x8)
   11f60:	b35ff0ef          	jal	x1,11a94 <__malloc_unlock>
   11f64:	cd5ff06f          	jal	x0,11c38 <_realloc_r+0x1a0>
   11f68:	00840413          	addi	x8,x8,8
   11f6c:	010b8793          	addi	x15,x23,16
   11f70:	ed9ff06f          	jal	x0,11e48 <_realloc_r+0x3b0>
   11f74:	00090513          	addi	x10,x18,0
   11f78:	b1dff0ef          	jal	x1,11a94 <__malloc_unlock>
   11f7c:	00000493          	addi	x9,x0,0
   11f80:	cb9ff06f          	jal	x0,11c38 <_realloc_r+0x1a0>
   11f84:	01042683          	lw	x13,16(x8)
   11f88:	01840713          	addi	x14,x8,24
   11f8c:	01850793          	addi	x15,x10,24
   11f90:	00d52823          	sw	x13,16(x10)
   11f94:	01442683          	lw	x13,20(x8)
   11f98:	00d52a23          	sw	x13,20(x10)
   11f9c:	c09ff06f          	jal	x0,11ba4 <_realloc_r+0x10c>
   11fa0:	00040593          	addi	x11,x8,0
   11fa4:	00048513          	addi	x10,x9,0
   11fa8:	9cdff0ef          	jal	x1,11974 <memmove>
   11fac:	dd9ff06f          	jal	x0,11d84 <_realloc_r+0x2ec>
   11fb0:	00842783          	lw	x15,8(x8)
   11fb4:	00fba823          	sw	x15,16(x23)
   11fb8:	00c42783          	lw	x15,12(x8)
   11fbc:	00fbaa23          	sw	x15,20(x23)
   11fc0:	00d60863          	beq	x12,x13,11fd0 <_realloc_r+0x538>
   11fc4:	01040413          	addi	x8,x8,16
   11fc8:	018b8793          	addi	x15,x23,24
   11fcc:	da1ff06f          	jal	x0,11d6c <_realloc_r+0x2d4>
   11fd0:	01042703          	lw	x14,16(x8)
   11fd4:	020b8793          	addi	x15,x23,32
   11fd8:	01840413          	addi	x8,x8,24
   11fdc:	00ebac23          	sw	x14,24(x23)
   11fe0:	ffc42703          	lw	x14,-4(x8)
   11fe4:	00ebae23          	sw	x14,28(x23)
   11fe8:	d85ff06f          	jal	x0,11d6c <_realloc_r+0x2d4>

00011fec <_sbrk_r>:
   11fec:	ff010113          	addi	x2,x2,-16
   11ff0:	00812423          	sw	x8,8(x2)
   11ff4:	00912223          	sw	x9,4(x2)
   11ff8:	00050413          	addi	x8,x10,0
   11ffc:	00058513          	addi	x10,x11,0
   12000:	00112623          	sw	x1,12(x2)
   12004:	0401a823          	sw	x0,80(x3) # 14df0 <errno>
   12008:	40c010ef          	jal	x1,13414 <_sbrk>
   1200c:	fff00793          	addi	x15,x0,-1
   12010:	00f50c63          	beq	x10,x15,12028 <_sbrk_r+0x3c>
   12014:	00c12083          	lw	x1,12(x2)
   12018:	00812403          	lw	x8,8(x2)
   1201c:	00412483          	lw	x9,4(x2)
   12020:	01010113          	addi	x2,x2,16
   12024:	00008067          	jalr	x0,0(x1)
   12028:	0501a783          	lw	x15,80(x3) # 14df0 <errno>
   1202c:	fe0784e3          	beq	x15,x0,12014 <_sbrk_r+0x28>
   12030:	00c12083          	lw	x1,12(x2)
   12034:	00f42023          	sw	x15,0(x8)
   12038:	00812403          	lw	x8,8(x2)
   1203c:	00412483          	lw	x9,4(x2)
   12040:	01010113          	addi	x2,x2,16
   12044:	00008067          	jalr	x0,0(x1)

00012048 <__sread>:
   12048:	ff010113          	addi	x2,x2,-16
   1204c:	00812423          	sw	x8,8(x2)
   12050:	00058413          	addi	x8,x11,0
   12054:	00e59583          	lh	x11,14(x11)
   12058:	00112623          	sw	x1,12(x2)
   1205c:	6ad000ef          	jal	x1,12f08 <_read_r>
   12060:	02054063          	blt	x10,x0,12080 <__sread+0x38>
   12064:	05042783          	lw	x15,80(x8)
   12068:	00c12083          	lw	x1,12(x2)
   1206c:	00a787b3          	add	x15,x15,x10
   12070:	04f42823          	sw	x15,80(x8)
   12074:	00812403          	lw	x8,8(x2)
   12078:	01010113          	addi	x2,x2,16
   1207c:	00008067          	jalr	x0,0(x1)
   12080:	00c45783          	lhu	x15,12(x8)
   12084:	fffff737          	lui	x14,0xfffff
   12088:	fff70713          	addi	x14,x14,-1 # ffffefff <__BSS_END__+0xfffea1c3>
   1208c:	00e7f7b3          	and	x15,x15,x14
   12090:	00c12083          	lw	x1,12(x2)
   12094:	00f41623          	sh	x15,12(x8)
   12098:	00812403          	lw	x8,8(x2)
   1209c:	01010113          	addi	x2,x2,16
   120a0:	00008067          	jalr	x0,0(x1)

000120a4 <__seofread>:
   120a4:	00000513          	addi	x10,x0,0
   120a8:	00008067          	jalr	x0,0(x1)

000120ac <__swrite>:
   120ac:	00c59783          	lh	x15,12(x11)
   120b0:	fe010113          	addi	x2,x2,-32
   120b4:	00812c23          	sw	x8,24(x2)
   120b8:	00912a23          	sw	x9,20(x2)
   120bc:	01212823          	sw	x18,16(x2)
   120c0:	01312623          	sw	x19,12(x2)
   120c4:	00112e23          	sw	x1,28(x2)
   120c8:	1007f713          	andi	x14,x15,256
   120cc:	00058413          	addi	x8,x11,0
   120d0:	00050493          	addi	x9,x10,0
   120d4:	00060913          	addi	x18,x12,0
   120d8:	00068993          	addi	x19,x13,0
   120dc:	04071063          	bne	x14,x0,1211c <__swrite+0x70>
   120e0:	fffff737          	lui	x14,0xfffff
   120e4:	fff70713          	addi	x14,x14,-1 # ffffefff <__BSS_END__+0xfffea1c3>
   120e8:	00e7f7b3          	and	x15,x15,x14
   120ec:	00e41583          	lh	x11,14(x8)
   120f0:	00f41623          	sh	x15,12(x8)
   120f4:	01812403          	lw	x8,24(x2)
   120f8:	01c12083          	lw	x1,28(x2)
   120fc:	00098693          	addi	x13,x19,0
   12100:	00090613          	addi	x12,x18,0
   12104:	00c12983          	lw	x19,12(x2)
   12108:	01012903          	lw	x18,16(x2)
   1210c:	00048513          	addi	x10,x9,0
   12110:	01412483          	lw	x9,20(x2)
   12114:	02010113          	addi	x2,x2,32
   12118:	09c0006f          	jal	x0,121b4 <_write_r>
   1211c:	00e59583          	lh	x11,14(x11)
   12120:	00200693          	addi	x13,x0,2
   12124:	00000613          	addi	x12,x0,0
   12128:	311000ef          	jal	x1,12c38 <_lseek_r>
   1212c:	00c41783          	lh	x15,12(x8)
   12130:	fb1ff06f          	jal	x0,120e0 <__swrite+0x34>

00012134 <__sseek>:
   12134:	ff010113          	addi	x2,x2,-16
   12138:	00812423          	sw	x8,8(x2)
   1213c:	00058413          	addi	x8,x11,0
   12140:	00e59583          	lh	x11,14(x11)
   12144:	00112623          	sw	x1,12(x2)
   12148:	2f1000ef          	jal	x1,12c38 <_lseek_r>
   1214c:	fff00793          	addi	x15,x0,-1
   12150:	02f50863          	beq	x10,x15,12180 <__sseek+0x4c>
   12154:	00c45783          	lhu	x15,12(x8)
   12158:	00001737          	lui	x14,0x1
   1215c:	00c12083          	lw	x1,12(x2)
   12160:	00e7e7b3          	or	x15,x15,x14
   12164:	01079793          	slli	x15,x15,0x10
   12168:	4107d793          	srai	x15,x15,0x10
   1216c:	04a42823          	sw	x10,80(x8)
   12170:	00f41623          	sh	x15,12(x8)
   12174:	00812403          	lw	x8,8(x2)
   12178:	01010113          	addi	x2,x2,16
   1217c:	00008067          	jalr	x0,0(x1)
   12180:	00c45783          	lhu	x15,12(x8)
   12184:	fffff737          	lui	x14,0xfffff
   12188:	fff70713          	addi	x14,x14,-1 # ffffefff <__BSS_END__+0xfffea1c3>
   1218c:	00e7f7b3          	and	x15,x15,x14
   12190:	01079793          	slli	x15,x15,0x10
   12194:	4107d793          	srai	x15,x15,0x10
   12198:	00c12083          	lw	x1,12(x2)
   1219c:	00f41623          	sh	x15,12(x8)
   121a0:	00812403          	lw	x8,8(x2)
   121a4:	01010113          	addi	x2,x2,16
   121a8:	00008067          	jalr	x0,0(x1)

000121ac <__sclose>:
   121ac:	00e59583          	lh	x11,14(x11)
   121b0:	1c00006f          	jal	x0,12370 <_close_r>

000121b4 <_write_r>:
   121b4:	ff010113          	addi	x2,x2,-16
   121b8:	00058713          	addi	x14,x11,0
   121bc:	00812423          	sw	x8,8(x2)
   121c0:	00912223          	sw	x9,4(x2)
   121c4:	00060593          	addi	x11,x12,0
   121c8:	00050413          	addi	x8,x10,0
   121cc:	00068613          	addi	x12,x13,0
   121d0:	00070513          	addi	x10,x14,0
   121d4:	00112623          	sw	x1,12(x2)
   121d8:	0401a823          	sw	x0,80(x3) # 14df0 <errno>
   121dc:	2b0010ef          	jal	x1,1348c <_write>
   121e0:	fff00793          	addi	x15,x0,-1
   121e4:	00f50c63          	beq	x10,x15,121fc <_write_r+0x48>
   121e8:	00c12083          	lw	x1,12(x2)
   121ec:	00812403          	lw	x8,8(x2)
   121f0:	00412483          	lw	x9,4(x2)
   121f4:	01010113          	addi	x2,x2,16
   121f8:	00008067          	jalr	x0,0(x1)
   121fc:	0501a783          	lw	x15,80(x3) # 14df0 <errno>
   12200:	fe0784e3          	beq	x15,x0,121e8 <_write_r+0x34>
   12204:	00c12083          	lw	x1,12(x2)
   12208:	00f42023          	sw	x15,0(x8)
   1220c:	00812403          	lw	x8,8(x2)
   12210:	00412483          	lw	x9,4(x2)
   12214:	01010113          	addi	x2,x2,16
   12218:	00008067          	jalr	x0,0(x1)

0001221c <__swsetup_r>:
   1221c:	0381a783          	lw	x15,56(x3) # 14dd8 <_impure_ptr>
   12220:	ff010113          	addi	x2,x2,-16
   12224:	00812423          	sw	x8,8(x2)
   12228:	00912223          	sw	x9,4(x2)
   1222c:	00112623          	sw	x1,12(x2)
   12230:	00050493          	addi	x9,x10,0
   12234:	00058413          	addi	x8,x11,0
   12238:	00078663          	beq	x15,x0,12244 <__swsetup_r+0x28>
   1223c:	0387a703          	lw	x14,56(x15)
   12240:	08070063          	beq	x14,x0,122c0 <__swsetup_r+0xa4>
   12244:	00c41783          	lh	x15,12(x8)
   12248:	0087f713          	andi	x14,x15,8
   1224c:	08070463          	beq	x14,x0,122d4 <__swsetup_r+0xb8>
   12250:	01042703          	lw	x14,16(x8)
   12254:	0a070063          	beq	x14,x0,122f4 <__swsetup_r+0xd8>
   12258:	0017f693          	andi	x13,x15,1
   1225c:	02068863          	beq	x13,x0,1228c <__swsetup_r+0x70>
   12260:	01442683          	lw	x13,20(x8)
   12264:	00042423          	sw	x0,8(x8)
   12268:	00000513          	addi	x10,x0,0
   1226c:	40d006b3          	sub	x13,x0,x13
   12270:	00d42c23          	sw	x13,24(x8)
   12274:	02070a63          	beq	x14,x0,122a8 <__swsetup_r+0x8c>
   12278:	00c12083          	lw	x1,12(x2)
   1227c:	00812403          	lw	x8,8(x2)
   12280:	00412483          	lw	x9,4(x2)
   12284:	01010113          	addi	x2,x2,16
   12288:	00008067          	jalr	x0,0(x1)
   1228c:	0027f693          	andi	x13,x15,2
   12290:	00000613          	addi	x12,x0,0
   12294:	00069463          	bne	x13,x0,1229c <__swsetup_r+0x80>
   12298:	01442603          	lw	x12,20(x8)
   1229c:	00c42423          	sw	x12,8(x8)
   122a0:	00000513          	addi	x10,x0,0
   122a4:	fc071ae3          	bne	x14,x0,12278 <__swsetup_r+0x5c>
   122a8:	0807f713          	andi	x14,x15,128
   122ac:	fc0706e3          	beq	x14,x0,12278 <__swsetup_r+0x5c>
   122b0:	0407e793          	ori	x15,x15,64
   122b4:	00f41623          	sh	x15,12(x8)
   122b8:	fff00513          	addi	x10,x0,-1
   122bc:	fbdff06f          	jal	x0,12278 <__swsetup_r+0x5c>
   122c0:	00078513          	addi	x10,x15,0
   122c4:	e44fe0ef          	jal	x1,10908 <__sinit>
   122c8:	00c41783          	lh	x15,12(x8)
   122cc:	0087f713          	andi	x14,x15,8
   122d0:	f80710e3          	bne	x14,x0,12250 <__swsetup_r+0x34>
   122d4:	0107f713          	andi	x14,x15,16
   122d8:	06070a63          	beq	x14,x0,1234c <__swsetup_r+0x130>
   122dc:	0047f713          	andi	x14,x15,4
   122e0:	02071c63          	bne	x14,x0,12318 <__swsetup_r+0xfc>
   122e4:	01042703          	lw	x14,16(x8)
   122e8:	0087e793          	ori	x15,x15,8
   122ec:	00f41623          	sh	x15,12(x8)
   122f0:	f60714e3          	bne	x14,x0,12258 <__swsetup_r+0x3c>
   122f4:	2807f693          	andi	x13,x15,640
   122f8:	20000613          	addi	x12,x0,512
   122fc:	f4c68ee3          	beq	x13,x12,12258 <__swsetup_r+0x3c>
   12300:	00040593          	addi	x11,x8,0
   12304:	00048513          	addi	x10,x9,0
   12308:	199000ef          	jal	x1,12ca0 <__smakebuf_r>
   1230c:	00c41783          	lh	x15,12(x8)
   12310:	01042703          	lw	x14,16(x8)
   12314:	f45ff06f          	jal	x0,12258 <__swsetup_r+0x3c>
   12318:	03042583          	lw	x11,48(x8)
   1231c:	00058e63          	beq	x11,x0,12338 <__swsetup_r+0x11c>
   12320:	04040713          	addi	x14,x8,64
   12324:	00e58863          	beq	x11,x14,12334 <__swsetup_r+0x118>
   12328:	00048513          	addi	x10,x9,0
   1232c:	614000ef          	jal	x1,12940 <_free_r>
   12330:	00c41783          	lh	x15,12(x8)
   12334:	02042823          	sw	x0,48(x8)
   12338:	01042703          	lw	x14,16(x8)
   1233c:	fdb7f793          	andi	x15,x15,-37
   12340:	00042223          	sw	x0,4(x8)
   12344:	00e42023          	sw	x14,0(x8)
   12348:	fa1ff06f          	jal	x0,122e8 <__swsetup_r+0xcc>
   1234c:	00900713          	addi	x14,x0,9
   12350:	00e4a023          	sw	x14,0(x9)
   12354:	0407e793          	ori	x15,x15,64
   12358:	f5dff06f          	jal	x0,122b4 <__swsetup_r+0x98>

0001235c <atexit>:
   1235c:	00050593          	addi	x11,x10,0
   12360:	00000693          	addi	x13,x0,0
   12364:	00000613          	addi	x12,x0,0
   12368:	00000513          	addi	x10,x0,0
   1236c:	5b50006f          	jal	x0,13120 <__register_exitproc>

00012370 <_close_r>:
   12370:	ff010113          	addi	x2,x2,-16
   12374:	00812423          	sw	x8,8(x2)
   12378:	00912223          	sw	x9,4(x2)
   1237c:	00050413          	addi	x8,x10,0
   12380:	00058513          	addi	x10,x11,0
   12384:	00112623          	sw	x1,12(x2)
   12388:	0401a823          	sw	x0,80(x3) # 14df0 <errno>
   1238c:	6ed000ef          	jal	x1,13278 <_close>
   12390:	fff00793          	addi	x15,x0,-1
   12394:	00f50c63          	beq	x10,x15,123ac <_close_r+0x3c>
   12398:	00c12083          	lw	x1,12(x2)
   1239c:	00812403          	lw	x8,8(x2)
   123a0:	00412483          	lw	x9,4(x2)
   123a4:	01010113          	addi	x2,x2,16
   123a8:	00008067          	jalr	x0,0(x1)
   123ac:	0501a783          	lw	x15,80(x3) # 14df0 <errno>
   123b0:	fe0784e3          	beq	x15,x0,12398 <_close_r+0x28>
   123b4:	00c12083          	lw	x1,12(x2)
   123b8:	00f42023          	sw	x15,0(x8)
   123bc:	00812403          	lw	x8,8(x2)
   123c0:	00412483          	lw	x9,4(x2)
   123c4:	01010113          	addi	x2,x2,16
   123c8:	00008067          	jalr	x0,0(x1)

000123cc <_fclose_r>:
   123cc:	ff010113          	addi	x2,x2,-16
   123d0:	00112623          	sw	x1,12(x2)
   123d4:	00812423          	sw	x8,8(x2)
   123d8:	00912223          	sw	x9,4(x2)
   123dc:	01212023          	sw	x18,0(x2)
   123e0:	02058063          	beq	x11,x0,12400 <_fclose_r+0x34>
   123e4:	00058413          	addi	x8,x11,0
   123e8:	00050493          	addi	x9,x10,0
   123ec:	00050663          	beq	x10,x0,123f8 <_fclose_r+0x2c>
   123f0:	03852783          	lw	x15,56(x10)
   123f4:	0a078c63          	beq	x15,x0,124ac <_fclose_r+0xe0>
   123f8:	00c41783          	lh	x15,12(x8)
   123fc:	02079263          	bne	x15,x0,12420 <_fclose_r+0x54>
   12400:	00c12083          	lw	x1,12(x2)
   12404:	00812403          	lw	x8,8(x2)
   12408:	00000913          	addi	x18,x0,0
   1240c:	00412483          	lw	x9,4(x2)
   12410:	00090513          	addi	x10,x18,0
   12414:	00012903          	lw	x18,0(x2)
   12418:	01010113          	addi	x2,x2,16
   1241c:	00008067          	jalr	x0,0(x1)
   12420:	00040593          	addi	x11,x8,0
   12424:	00048513          	addi	x10,x9,0
   12428:	0c0000ef          	jal	x1,124e8 <__sflush_r>
   1242c:	02c42783          	lw	x15,44(x8)
   12430:	00050913          	addi	x18,x10,0
   12434:	00078a63          	beq	x15,x0,12448 <_fclose_r+0x7c>
   12438:	01c42583          	lw	x11,28(x8)
   1243c:	00048513          	addi	x10,x9,0
   12440:	000780e7          	jalr	x1,0(x15)
   12444:	06054c63          	blt	x10,x0,124bc <_fclose_r+0xf0>
   12448:	00c45783          	lhu	x15,12(x8)
   1244c:	0807f793          	andi	x15,x15,128
   12450:	06079e63          	bne	x15,x0,124cc <_fclose_r+0x100>
   12454:	03042583          	lw	x11,48(x8)
   12458:	00058c63          	beq	x11,x0,12470 <_fclose_r+0xa4>
   1245c:	04040793          	addi	x15,x8,64
   12460:	00f58663          	beq	x11,x15,1246c <_fclose_r+0xa0>
   12464:	00048513          	addi	x10,x9,0
   12468:	4d8000ef          	jal	x1,12940 <_free_r>
   1246c:	02042823          	sw	x0,48(x8)
   12470:	04442583          	lw	x11,68(x8)
   12474:	00058863          	beq	x11,x0,12484 <_fclose_r+0xb8>
   12478:	00048513          	addi	x10,x9,0
   1247c:	4c4000ef          	jal	x1,12940 <_free_r>
   12480:	04042223          	sw	x0,68(x8)
   12484:	c94fe0ef          	jal	x1,10918 <__sfp_lock_acquire>
   12488:	00041623          	sh	x0,12(x8)
   1248c:	c90fe0ef          	jal	x1,1091c <__sfp_lock_release>
   12490:	00c12083          	lw	x1,12(x2)
   12494:	00812403          	lw	x8,8(x2)
   12498:	00412483          	lw	x9,4(x2)
   1249c:	00090513          	addi	x10,x18,0
   124a0:	00012903          	lw	x18,0(x2)
   124a4:	01010113          	addi	x2,x2,16
   124a8:	00008067          	jalr	x0,0(x1)
   124ac:	c5cfe0ef          	jal	x1,10908 <__sinit>
   124b0:	00c41783          	lh	x15,12(x8)
   124b4:	f40786e3          	beq	x15,x0,12400 <_fclose_r+0x34>
   124b8:	f69ff06f          	jal	x0,12420 <_fclose_r+0x54>
   124bc:	00c45783          	lhu	x15,12(x8)
   124c0:	fff00913          	addi	x18,x0,-1
   124c4:	0807f793          	andi	x15,x15,128
   124c8:	f80786e3          	beq	x15,x0,12454 <_fclose_r+0x88>
   124cc:	01042583          	lw	x11,16(x8)
   124d0:	00048513          	addi	x10,x9,0
   124d4:	46c000ef          	jal	x1,12940 <_free_r>
   124d8:	f7dff06f          	jal	x0,12454 <_fclose_r+0x88>

000124dc <fclose>:
   124dc:	00050593          	addi	x11,x10,0
   124e0:	0381a503          	lw	x10,56(x3) # 14dd8 <_impure_ptr>
   124e4:	ee9ff06f          	jal	x0,123cc <_fclose_r>

000124e8 <__sflush_r>:
   124e8:	00c59783          	lh	x15,12(x11)
   124ec:	fe010113          	addi	x2,x2,-32
   124f0:	00812c23          	sw	x8,24(x2)
   124f4:	01312623          	sw	x19,12(x2)
   124f8:	00112e23          	sw	x1,28(x2)
   124fc:	00912a23          	sw	x9,20(x2)
   12500:	01212823          	sw	x18,16(x2)
   12504:	0087f713          	andi	x14,x15,8
   12508:	00058413          	addi	x8,x11,0
   1250c:	00050993          	addi	x19,x10,0
   12510:	12071263          	bne	x14,x0,12634 <__sflush_r+0x14c>
   12514:	00001737          	lui	x14,0x1
   12518:	80070713          	addi	x14,x14,-2048 # 800 <exit-0xf894>
   1251c:	0045a683          	lw	x13,4(x11)
   12520:	00e7e733          	or	x14,x15,x14
   12524:	00e59623          	sh	x14,12(x11)
   12528:	18d05863          	bge	x0,x13,126b8 <__sflush_r+0x1d0>
   1252c:	02842803          	lw	x16,40(x8)
   12530:	0e080263          	beq	x16,x0,12614 <__sflush_r+0x12c>
   12534:	00c7d793          	srli	x15,x15,0xc
   12538:	0009a483          	lw	x9,0(x19)
   1253c:	0017f793          	andi	x15,x15,1
   12540:	0009a023          	sw	x0,0(x19)
   12544:	01c42583          	lw	x11,28(x8)
   12548:	18079063          	bne	x15,x0,126c8 <__sflush_r+0x1e0>
   1254c:	00000613          	addi	x12,x0,0
   12550:	00100693          	addi	x13,x0,1
   12554:	00098513          	addi	x10,x19,0
   12558:	000800e7          	jalr	x1,0(x16)
   1255c:	fff00793          	addi	x15,x0,-1
   12560:	00050613          	addi	x12,x10,0
   12564:	1af50063          	beq	x10,x15,12704 <__sflush_r+0x21c>
   12568:	00c41703          	lh	x14,12(x8)
   1256c:	02842803          	lw	x16,40(x8)
   12570:	01c42583          	lw	x11,28(x8)
   12574:	00477713          	andi	x14,x14,4
   12578:	00070e63          	beq	x14,x0,12594 <__sflush_r+0xac>
   1257c:	00442703          	lw	x14,4(x8)
   12580:	03042783          	lw	x15,48(x8)
   12584:	40e60633          	sub	x12,x12,x14
   12588:	00078663          	beq	x15,x0,12594 <__sflush_r+0xac>
   1258c:	03c42783          	lw	x15,60(x8)
   12590:	40f60633          	sub	x12,x12,x15
   12594:	00000693          	addi	x13,x0,0
   12598:	00098513          	addi	x10,x19,0
   1259c:	000800e7          	jalr	x1,0(x16)
   125a0:	fff00793          	addi	x15,x0,-1
   125a4:	12f51663          	bne	x10,x15,126d0 <__sflush_r+0x1e8>
   125a8:	0009a683          	lw	x13,0(x19)
   125ac:	01d00793          	addi	x15,x0,29
   125b0:	0cd7ee63          	bltu	x15,x13,1268c <__sflush_r+0x1a4>
   125b4:	dfc00737          	lui	x14,0xdfc00
   125b8:	ffe70713          	addi	x14,x14,-2 # dfbffffe <__BSS_END__+0xdfbeb1c2>
   125bc:	40d75733          	sra	x14,x14,x13
   125c0:	00177713          	andi	x14,x14,1
   125c4:	00c41783          	lh	x15,12(x8)
   125c8:	0c071463          	bne	x14,x0,12690 <__sflush_r+0x1a8>
   125cc:	01042603          	lw	x12,16(x8)
   125d0:	fffff737          	lui	x14,0xfffff
   125d4:	7ff70713          	addi	x14,x14,2047 # fffff7ff <__BSS_END__+0xfffea9c3>
   125d8:	00e7f733          	and	x14,x15,x14
   125dc:	00c7d793          	srli	x15,x15,0xc
   125e0:	00e41623          	sh	x14,12(x8)
   125e4:	00042223          	sw	x0,4(x8)
   125e8:	00c42023          	sw	x12,0(x8)
   125ec:	0017f793          	andi	x15,x15,1
   125f0:	12079c63          	bne	x15,x0,12728 <__sflush_r+0x240>
   125f4:	03042583          	lw	x11,48(x8)
   125f8:	0099a023          	sw	x9,0(x19)
   125fc:	00058c63          	beq	x11,x0,12614 <__sflush_r+0x12c>
   12600:	04040793          	addi	x15,x8,64
   12604:	00f58663          	beq	x11,x15,12610 <__sflush_r+0x128>
   12608:	00098513          	addi	x10,x19,0
   1260c:	334000ef          	jal	x1,12940 <_free_r>
   12610:	02042823          	sw	x0,48(x8)
   12614:	00000513          	addi	x10,x0,0
   12618:	01c12083          	lw	x1,28(x2)
   1261c:	01812403          	lw	x8,24(x2)
   12620:	01412483          	lw	x9,20(x2)
   12624:	01012903          	lw	x18,16(x2)
   12628:	00c12983          	lw	x19,12(x2)
   1262c:	02010113          	addi	x2,x2,32
   12630:	00008067          	jalr	x0,0(x1)
   12634:	0105a903          	lw	x18,16(x11)
   12638:	fc090ee3          	beq	x18,x0,12614 <__sflush_r+0x12c>
   1263c:	0005a483          	lw	x9,0(x11)
   12640:	0037f793          	andi	x15,x15,3
   12644:	0125a023          	sw	x18,0(x11)
   12648:	412484b3          	sub	x9,x9,x18
   1264c:	00000713          	addi	x14,x0,0
   12650:	00079463          	bne	x15,x0,12658 <__sflush_r+0x170>
   12654:	0145a703          	lw	x14,20(x11)
   12658:	00e42423          	sw	x14,8(x8)
   1265c:	00904863          	blt	x0,x9,1266c <__sflush_r+0x184>
   12660:	fb5ff06f          	jal	x0,12614 <__sflush_r+0x12c>
   12664:	00a90933          	add	x18,x18,x10
   12668:	fa9056e3          	bge	x0,x9,12614 <__sflush_r+0x12c>
   1266c:	02442783          	lw	x15,36(x8)
   12670:	01c42583          	lw	x11,28(x8)
   12674:	00048693          	addi	x13,x9,0
   12678:	00090613          	addi	x12,x18,0
   1267c:	00098513          	addi	x10,x19,0
   12680:	000780e7          	jalr	x1,0(x15)
   12684:	40a484b3          	sub	x9,x9,x10
   12688:	fca04ee3          	blt	x0,x10,12664 <__sflush_r+0x17c>
   1268c:	00c41783          	lh	x15,12(x8)
   12690:	0407e793          	ori	x15,x15,64
   12694:	01c12083          	lw	x1,28(x2)
   12698:	00f41623          	sh	x15,12(x8)
   1269c:	01812403          	lw	x8,24(x2)
   126a0:	01412483          	lw	x9,20(x2)
   126a4:	01012903          	lw	x18,16(x2)
   126a8:	00c12983          	lw	x19,12(x2)
   126ac:	fff00513          	addi	x10,x0,-1
   126b0:	02010113          	addi	x2,x2,32
   126b4:	00008067          	jalr	x0,0(x1)
   126b8:	03c5a683          	lw	x13,60(x11)
   126bc:	e6d048e3          	blt	x0,x13,1252c <__sflush_r+0x44>
   126c0:	00000513          	addi	x10,x0,0
   126c4:	f55ff06f          	jal	x0,12618 <__sflush_r+0x130>
   126c8:	05042603          	lw	x12,80(x8)
   126cc:	ea9ff06f          	jal	x0,12574 <__sflush_r+0x8c>
   126d0:	00c41783          	lh	x15,12(x8)
   126d4:	01042683          	lw	x13,16(x8)
   126d8:	fffff737          	lui	x14,0xfffff
   126dc:	7ff70713          	addi	x14,x14,2047 # fffff7ff <__BSS_END__+0xfffea9c3>
   126e0:	00e7f733          	and	x14,x15,x14
   126e4:	00c7d793          	srli	x15,x15,0xc
   126e8:	00e41623          	sh	x14,12(x8)
   126ec:	00042223          	sw	x0,4(x8)
   126f0:	00d42023          	sw	x13,0(x8)
   126f4:	0017f793          	andi	x15,x15,1
   126f8:	ee078ee3          	beq	x15,x0,125f4 <__sflush_r+0x10c>
   126fc:	04a42823          	sw	x10,80(x8)
   12700:	ef5ff06f          	jal	x0,125f4 <__sflush_r+0x10c>
   12704:	0009a783          	lw	x15,0(x19)
   12708:	e60780e3          	beq	x15,x0,12568 <__sflush_r+0x80>
   1270c:	01d00713          	addi	x14,x0,29
   12710:	00e78663          	beq	x15,x14,1271c <__sflush_r+0x234>
   12714:	01600713          	addi	x14,x0,22
   12718:	f6e79ae3          	bne	x15,x14,1268c <__sflush_r+0x1a4>
   1271c:	0099a023          	sw	x9,0(x19)
   12720:	00000513          	addi	x10,x0,0
   12724:	ef5ff06f          	jal	x0,12618 <__sflush_r+0x130>
   12728:	ec0696e3          	bne	x13,x0,125f4 <__sflush_r+0x10c>
   1272c:	04a42823          	sw	x10,80(x8)
   12730:	ec5ff06f          	jal	x0,125f4 <__sflush_r+0x10c>

00012734 <_fflush_r>:
   12734:	fe010113          	addi	x2,x2,-32
   12738:	00812c23          	sw	x8,24(x2)
   1273c:	00112e23          	sw	x1,28(x2)
   12740:	00050413          	addi	x8,x10,0
   12744:	00050663          	beq	x10,x0,12750 <_fflush_r+0x1c>
   12748:	03852783          	lw	x15,56(x10)
   1274c:	02078063          	beq	x15,x0,1276c <_fflush_r+0x38>
   12750:	00c59783          	lh	x15,12(x11)
   12754:	02079663          	bne	x15,x0,12780 <_fflush_r+0x4c>
   12758:	01c12083          	lw	x1,28(x2)
   1275c:	01812403          	lw	x8,24(x2)
   12760:	00000513          	addi	x10,x0,0
   12764:	02010113          	addi	x2,x2,32
   12768:	00008067          	jalr	x0,0(x1)
   1276c:	00b12623          	sw	x11,12(x2)
   12770:	998fe0ef          	jal	x1,10908 <__sinit>
   12774:	00c12583          	lw	x11,12(x2)
   12778:	00c59783          	lh	x15,12(x11)
   1277c:	fc078ee3          	beq	x15,x0,12758 <_fflush_r+0x24>
   12780:	00040513          	addi	x10,x8,0
   12784:	01812403          	lw	x8,24(x2)
   12788:	01c12083          	lw	x1,28(x2)
   1278c:	02010113          	addi	x2,x2,32
   12790:	d59ff06f          	jal	x0,124e8 <__sflush_r>

00012794 <fflush>:
   12794:	06050663          	beq	x10,x0,12800 <fflush+0x6c>
   12798:	fe010113          	addi	x2,x2,-32
   1279c:	00812c23          	sw	x8,24(x2)
   127a0:	00050413          	addi	x8,x10,0
   127a4:	0381a503          	lw	x10,56(x3) # 14dd8 <_impure_ptr>
   127a8:	00112e23          	sw	x1,28(x2)
   127ac:	00050663          	beq	x10,x0,127b8 <fflush+0x24>
   127b0:	03852783          	lw	x15,56(x10)
   127b4:	02078a63          	beq	x15,x0,127e8 <fflush+0x54>
   127b8:	00c41783          	lh	x15,12(x8)
   127bc:	00079c63          	bne	x15,x0,127d4 <fflush+0x40>
   127c0:	01c12083          	lw	x1,28(x2)
   127c4:	01812403          	lw	x8,24(x2)
   127c8:	00000513          	addi	x10,x0,0
   127cc:	02010113          	addi	x2,x2,32
   127d0:	00008067          	jalr	x0,0(x1)
   127d4:	00040593          	addi	x11,x8,0
   127d8:	01812403          	lw	x8,24(x2)
   127dc:	01c12083          	lw	x1,28(x2)
   127e0:	02010113          	addi	x2,x2,32
   127e4:	d05ff06f          	jal	x0,124e8 <__sflush_r>
   127e8:	00a12623          	sw	x10,12(x2)
   127ec:	91cfe0ef          	jal	x1,10908 <__sinit>
   127f0:	00c41783          	lh	x15,12(x8)
   127f4:	00c12503          	lw	x10,12(x2)
   127f8:	fc0784e3          	beq	x15,x0,127c0 <fflush+0x2c>
   127fc:	fd9ff06f          	jal	x0,127d4 <fflush+0x40>
   12800:	0301a503          	lw	x10,48(x3) # 14dd0 <_global_impure_ptr>
   12804:	000125b7          	lui	x11,0x12
   12808:	73458593          	addi	x11,x11,1844 # 12734 <_fflush_r>
   1280c:	ed8fe06f          	jal	x0,10ee4 <_fwalk_reent>

00012810 <_malloc_trim_r>:
   12810:	fe010113          	addi	x2,x2,-32
   12814:	01312623          	sw	x19,12(x2)
   12818:	00812c23          	sw	x8,24(x2)
   1281c:	00912a23          	sw	x9,20(x2)
   12820:	01212823          	sw	x18,16(x2)
   12824:	01412423          	sw	x20,8(x2)
   12828:	00112e23          	sw	x1,28(x2)
   1282c:	00058a13          	addi	x20,x11,0
   12830:	00050913          	addi	x18,x10,0
   12834:	c2818993          	addi	x19,x3,-984 # 149c8 <__malloc_av_>
   12838:	a58ff0ef          	jal	x1,11a90 <__malloc_lock>
   1283c:	0089a703          	lw	x14,8(x19)
   12840:	000017b7          	lui	x15,0x1
   12844:	fef78413          	addi	x8,x15,-17 # fef <exit-0xf0a5>
   12848:	00472483          	lw	x9,4(x14)
   1284c:	ffc4f493          	andi	x9,x9,-4
   12850:	00848433          	add	x8,x9,x8
   12854:	41440433          	sub	x8,x8,x20
   12858:	00c45413          	srli	x8,x8,0xc
   1285c:	fff40413          	addi	x8,x8,-1
   12860:	00c41413          	slli	x8,x8,0xc
   12864:	00f44e63          	blt	x8,x15,12880 <_malloc_trim_r+0x70>
   12868:	00000593          	addi	x11,x0,0
   1286c:	00090513          	addi	x10,x18,0
   12870:	f7cff0ef          	jal	x1,11fec <_sbrk_r>
   12874:	0089a783          	lw	x15,8(x19)
   12878:	009787b3          	add	x15,x15,x9
   1287c:	02f50863          	beq	x10,x15,128ac <_malloc_trim_r+0x9c>
   12880:	00090513          	addi	x10,x18,0
   12884:	a10ff0ef          	jal	x1,11a94 <__malloc_unlock>
   12888:	01c12083          	lw	x1,28(x2)
   1288c:	01812403          	lw	x8,24(x2)
   12890:	01412483          	lw	x9,20(x2)
   12894:	01012903          	lw	x18,16(x2)
   12898:	00c12983          	lw	x19,12(x2)
   1289c:	00812a03          	lw	x20,8(x2)
   128a0:	00000513          	addi	x10,x0,0
   128a4:	02010113          	addi	x2,x2,32
   128a8:	00008067          	jalr	x0,0(x1)
   128ac:	408005b3          	sub	x11,x0,x8
   128b0:	00090513          	addi	x10,x18,0
   128b4:	f38ff0ef          	jal	x1,11fec <_sbrk_r>
   128b8:	fff00793          	addi	x15,x0,-1
   128bc:	04f50863          	beq	x10,x15,1290c <_malloc_trim_r+0xfc>
   128c0:	07418793          	addi	x15,x3,116 # 14e14 <__malloc_current_mallinfo>
   128c4:	0007a703          	lw	x14,0(x15)
   128c8:	0089a683          	lw	x13,8(x19)
   128cc:	408484b3          	sub	x9,x9,x8
   128d0:	0014e493          	ori	x9,x9,1
   128d4:	40870733          	sub	x14,x14,x8
   128d8:	00090513          	addi	x10,x18,0
   128dc:	0096a223          	sw	x9,4(x13)
   128e0:	00e7a023          	sw	x14,0(x15)
   128e4:	9b0ff0ef          	jal	x1,11a94 <__malloc_unlock>
   128e8:	01c12083          	lw	x1,28(x2)
   128ec:	01812403          	lw	x8,24(x2)
   128f0:	01412483          	lw	x9,20(x2)
   128f4:	01012903          	lw	x18,16(x2)
   128f8:	00c12983          	lw	x19,12(x2)
   128fc:	00812a03          	lw	x20,8(x2)
   12900:	00100513          	addi	x10,x0,1
   12904:	02010113          	addi	x2,x2,32
   12908:	00008067          	jalr	x0,0(x1)
   1290c:	00000593          	addi	x11,x0,0
   12910:	00090513          	addi	x10,x18,0
   12914:	ed8ff0ef          	jal	x1,11fec <_sbrk_r>
   12918:	0089a703          	lw	x14,8(x19)
   1291c:	00f00693          	addi	x13,x0,15
   12920:	40e507b3          	sub	x15,x10,x14
   12924:	f4f6dee3          	bge	x13,x15,12880 <_malloc_trim_r+0x70>
   12928:	03c1a683          	lw	x13,60(x3) # 14ddc <__malloc_sbrk_base>
   1292c:	0017e793          	ori	x15,x15,1
   12930:	00f72223          	sw	x15,4(x14)
   12934:	40d50533          	sub	x10,x10,x13
   12938:	06a1aa23          	sw	x10,116(x3) # 14e14 <__malloc_current_mallinfo>
   1293c:	f45ff06f          	jal	x0,12880 <_malloc_trim_r+0x70>

00012940 <_free_r>:
   12940:	16058e63          	beq	x11,x0,12abc <_free_r+0x17c>
   12944:	ff010113          	addi	x2,x2,-16
   12948:	00812423          	sw	x8,8(x2)
   1294c:	00912223          	sw	x9,4(x2)
   12950:	00058413          	addi	x8,x11,0
   12954:	00050493          	addi	x9,x10,0
   12958:	00112623          	sw	x1,12(x2)
   1295c:	934ff0ef          	jal	x1,11a90 <__malloc_lock>
   12960:	ffc42503          	lw	x10,-4(x8)
   12964:	ff840713          	addi	x14,x8,-8
   12968:	ffe57793          	andi	x15,x10,-2
   1296c:	00f70633          	add	x12,x14,x15
   12970:	c2818593          	addi	x11,x3,-984 # 149c8 <__malloc_av_>
   12974:	00462683          	lw	x13,4(x12)
   12978:	0085a803          	lw	x16,8(x11)
   1297c:	ffc6f693          	andi	x13,x13,-4
   12980:	18c80e63          	beq	x16,x12,12b1c <_free_r+0x1dc>
   12984:	00d62223          	sw	x13,4(x12)
   12988:	00157513          	andi	x10,x10,1
   1298c:	00d60833          	add	x16,x12,x13
   12990:	08051e63          	bne	x10,x0,12a2c <_free_r+0xec>
   12994:	ff842303          	lw	x6,-8(x8)
   12998:	00482803          	lw	x16,4(x16)
   1299c:	40670733          	sub	x14,x14,x6
   129a0:	00872883          	lw	x17,8(x14)
   129a4:	c3018513          	addi	x10,x3,-976 # 149d0 <__malloc_av_+0x8>
   129a8:	006787b3          	add	x15,x15,x6
   129ac:	00187813          	andi	x16,x16,1
   129b0:	14a88063          	beq	x17,x10,12af0 <_free_r+0x1b0>
   129b4:	00c72303          	lw	x6,12(x14)
   129b8:	0068a623          	sw	x6,12(x17)
   129bc:	01132423          	sw	x17,8(x6)
   129c0:	1a080463          	beq	x16,x0,12b68 <_free_r+0x228>
   129c4:	0017e693          	ori	x13,x15,1
   129c8:	00d72223          	sw	x13,4(x14)
   129cc:	00f62023          	sw	x15,0(x12)
   129d0:	1ff00693          	addi	x13,x0,511
   129d4:	06f6ec63          	bltu	x13,x15,12a4c <_free_r+0x10c>
   129d8:	ff87f693          	andi	x13,x15,-8
   129dc:	00868693          	addi	x13,x13,8
   129e0:	0045a503          	lw	x10,4(x11)
   129e4:	00d586b3          	add	x13,x11,x13
   129e8:	0006a603          	lw	x12,0(x13)
   129ec:	0057d813          	srli	x16,x15,0x5
   129f0:	00100793          	addi	x15,x0,1
   129f4:	010797b3          	sll	x15,x15,x16
   129f8:	00a7e7b3          	or	x15,x15,x10
   129fc:	ff868513          	addi	x10,x13,-8
   12a00:	00a72623          	sw	x10,12(x14)
   12a04:	00c72423          	sw	x12,8(x14)
   12a08:	00f5a223          	sw	x15,4(x11)
   12a0c:	00e6a023          	sw	x14,0(x13)
   12a10:	00e62623          	sw	x14,12(x12)
   12a14:	00812403          	lw	x8,8(x2)
   12a18:	00c12083          	lw	x1,12(x2)
   12a1c:	00048513          	addi	x10,x9,0
   12a20:	00412483          	lw	x9,4(x2)
   12a24:	01010113          	addi	x2,x2,16
   12a28:	86cff06f          	jal	x0,11a94 <__malloc_unlock>
   12a2c:	00482503          	lw	x10,4(x16)
   12a30:	00157513          	andi	x10,x10,1
   12a34:	08050663          	beq	x10,x0,12ac0 <_free_r+0x180>
   12a38:	0017e693          	ori	x13,x15,1
   12a3c:	fed42e23          	sw	x13,-4(x8)
   12a40:	00f62023          	sw	x15,0(x12)
   12a44:	1ff00693          	addi	x13,x0,511
   12a48:	f8f6f8e3          	bgeu	x13,x15,129d8 <_free_r+0x98>
   12a4c:	0097d693          	srli	x13,x15,0x9
   12a50:	00400613          	addi	x12,x0,4
   12a54:	10d66e63          	bltu	x12,x13,12b70 <_free_r+0x230>
   12a58:	0067d693          	srli	x13,x15,0x6
   12a5c:	03968513          	addi	x10,x13,57
   12a60:	03868613          	addi	x12,x13,56
   12a64:	00351513          	slli	x10,x10,0x3
   12a68:	00a58533          	add	x10,x11,x10
   12a6c:	00052683          	lw	x13,0(x10)
   12a70:	ff850513          	addi	x10,x10,-8
   12a74:	00d51863          	bne	x10,x13,12a84 <_free_r+0x144>
   12a78:	1500006f          	jal	x0,12bc8 <_free_r+0x288>
   12a7c:	0086a683          	lw	x13,8(x13)
   12a80:	00d50863          	beq	x10,x13,12a90 <_free_r+0x150>
   12a84:	0046a603          	lw	x12,4(x13)
   12a88:	ffc67613          	andi	x12,x12,-4
   12a8c:	fec7e8e3          	bltu	x15,x12,12a7c <_free_r+0x13c>
   12a90:	00c6a503          	lw	x10,12(x13)
   12a94:	00a72623          	sw	x10,12(x14)
   12a98:	00d72423          	sw	x13,8(x14)
   12a9c:	00812403          	lw	x8,8(x2)
   12aa0:	00e52423          	sw	x14,8(x10)
   12aa4:	00c12083          	lw	x1,12(x2)
   12aa8:	00048513          	addi	x10,x9,0
   12aac:	00412483          	lw	x9,4(x2)
   12ab0:	00e6a623          	sw	x14,12(x13)
   12ab4:	01010113          	addi	x2,x2,16
   12ab8:	fddfe06f          	jal	x0,11a94 <__malloc_unlock>
   12abc:	00008067          	jalr	x0,0(x1)
   12ac0:	00d787b3          	add	x15,x15,x13
   12ac4:	c3018513          	addi	x10,x3,-976 # 149d0 <__malloc_av_+0x8>
   12ac8:	00862683          	lw	x13,8(x12)
   12acc:	0ca68c63          	beq	x13,x10,12ba4 <_free_r+0x264>
   12ad0:	00c62803          	lw	x16,12(x12)
   12ad4:	0017e513          	ori	x10,x15,1
   12ad8:	00f70633          	add	x12,x14,x15
   12adc:	0106a623          	sw	x16,12(x13)
   12ae0:	00d82423          	sw	x13,8(x16)
   12ae4:	00a72223          	sw	x10,4(x14)
   12ae8:	00f62023          	sw	x15,0(x12)
   12aec:	ee5ff06f          	jal	x0,129d0 <_free_r+0x90>
   12af0:	12081c63          	bne	x16,x0,12c28 <_free_r+0x2e8>
   12af4:	00862583          	lw	x11,8(x12)
   12af8:	00c62603          	lw	x12,12(x12)
   12afc:	00f686b3          	add	x13,x13,x15
   12b00:	0016e793          	ori	x15,x13,1
   12b04:	00c5a623          	sw	x12,12(x11)
   12b08:	00b62423          	sw	x11,8(x12)
   12b0c:	00f72223          	sw	x15,4(x14)
   12b10:	00d70733          	add	x14,x14,x13
   12b14:	00d72023          	sw	x13,0(x14)
   12b18:	efdff06f          	jal	x0,12a14 <_free_r+0xd4>
   12b1c:	00157513          	andi	x10,x10,1
   12b20:	00d786b3          	add	x13,x15,x13
   12b24:	02051063          	bne	x10,x0,12b44 <_free_r+0x204>
   12b28:	ff842503          	lw	x10,-8(x8)
   12b2c:	40a70733          	sub	x14,x14,x10
   12b30:	00c72783          	lw	x15,12(x14)
   12b34:	00872603          	lw	x12,8(x14)
   12b38:	00a686b3          	add	x13,x13,x10
   12b3c:	00f62623          	sw	x15,12(x12)
   12b40:	00c7a423          	sw	x12,8(x15)
   12b44:	0016e613          	ori	x12,x13,1
   12b48:	0401a783          	lw	x15,64(x3) # 14de0 <__malloc_trim_threshold>
   12b4c:	00c72223          	sw	x12,4(x14)
   12b50:	00e5a423          	sw	x14,8(x11)
   12b54:	ecf6e0e3          	bltu	x13,x15,12a14 <_free_r+0xd4>
   12b58:	04c1a583          	lw	x11,76(x3) # 14dec <__malloc_top_pad>
   12b5c:	00048513          	addi	x10,x9,0
   12b60:	cb1ff0ef          	jal	x1,12810 <_malloc_trim_r>
   12b64:	eb1ff06f          	jal	x0,12a14 <_free_r+0xd4>
   12b68:	00d787b3          	add	x15,x15,x13
   12b6c:	f5dff06f          	jal	x0,12ac8 <_free_r+0x188>
   12b70:	01400613          	addi	x12,x0,20
   12b74:	02d67063          	bgeu	x12,x13,12b94 <_free_r+0x254>
   12b78:	05400613          	addi	x12,x0,84
   12b7c:	06d66463          	bltu	x12,x13,12be4 <_free_r+0x2a4>
   12b80:	00c7d693          	srli	x13,x15,0xc
   12b84:	06f68513          	addi	x10,x13,111
   12b88:	06e68613          	addi	x12,x13,110
   12b8c:	00351513          	slli	x10,x10,0x3
   12b90:	ed9ff06f          	jal	x0,12a68 <_free_r+0x128>
   12b94:	05c68513          	addi	x10,x13,92
   12b98:	05b68613          	addi	x12,x13,91
   12b9c:	00351513          	slli	x10,x10,0x3
   12ba0:	ec9ff06f          	jal	x0,12a68 <_free_r+0x128>
   12ba4:	00e5aa23          	sw	x14,20(x11)
   12ba8:	00e5a823          	sw	x14,16(x11)
   12bac:	0017e693          	ori	x13,x15,1
   12bb0:	00a72623          	sw	x10,12(x14)
   12bb4:	00a72423          	sw	x10,8(x14)
   12bb8:	00d72223          	sw	x13,4(x14)
   12bbc:	00f70733          	add	x14,x14,x15
   12bc0:	00f72023          	sw	x15,0(x14)
   12bc4:	e51ff06f          	jal	x0,12a14 <_free_r+0xd4>
   12bc8:	0045a803          	lw	x16,4(x11)
   12bcc:	40265613          	srai	x12,x12,0x2
   12bd0:	00100793          	addi	x15,x0,1
   12bd4:	00c797b3          	sll	x15,x15,x12
   12bd8:	0107e7b3          	or	x15,x15,x16
   12bdc:	00f5a223          	sw	x15,4(x11)
   12be0:	eb5ff06f          	jal	x0,12a94 <_free_r+0x154>
   12be4:	15400613          	addi	x12,x0,340
   12be8:	00d66c63          	bltu	x12,x13,12c00 <_free_r+0x2c0>
   12bec:	00f7d693          	srli	x13,x15,0xf
   12bf0:	07868513          	addi	x10,x13,120
   12bf4:	07768613          	addi	x12,x13,119
   12bf8:	00351513          	slli	x10,x10,0x3
   12bfc:	e6dff06f          	jal	x0,12a68 <_free_r+0x128>
   12c00:	55400613          	addi	x12,x0,1364
   12c04:	00d66c63          	bltu	x12,x13,12c1c <_free_r+0x2dc>
   12c08:	0127d693          	srli	x13,x15,0x12
   12c0c:	07d68513          	addi	x10,x13,125
   12c10:	07c68613          	addi	x12,x13,124
   12c14:	00351513          	slli	x10,x10,0x3
   12c18:	e51ff06f          	jal	x0,12a68 <_free_r+0x128>
   12c1c:	3f800513          	addi	x10,x0,1016
   12c20:	07e00613          	addi	x12,x0,126
   12c24:	e45ff06f          	jal	x0,12a68 <_free_r+0x128>
   12c28:	0017e693          	ori	x13,x15,1
   12c2c:	00d72223          	sw	x13,4(x14)
   12c30:	00f62023          	sw	x15,0(x12)
   12c34:	de1ff06f          	jal	x0,12a14 <_free_r+0xd4>

00012c38 <_lseek_r>:
   12c38:	ff010113          	addi	x2,x2,-16
   12c3c:	00058713          	addi	x14,x11,0
   12c40:	00812423          	sw	x8,8(x2)
   12c44:	00912223          	sw	x9,4(x2)
   12c48:	00060593          	addi	x11,x12,0
   12c4c:	00050413          	addi	x8,x10,0
   12c50:	00068613          	addi	x12,x13,0
   12c54:	00070513          	addi	x10,x14,0
   12c58:	00112623          	sw	x1,12(x2)
   12c5c:	0401a823          	sw	x0,80(x3) # 14df0 <errno>
   12c60:	72c000ef          	jal	x1,1338c <_lseek>
   12c64:	fff00793          	addi	x15,x0,-1
   12c68:	00f50c63          	beq	x10,x15,12c80 <_lseek_r+0x48>
   12c6c:	00c12083          	lw	x1,12(x2)
   12c70:	00812403          	lw	x8,8(x2)
   12c74:	00412483          	lw	x9,4(x2)
   12c78:	01010113          	addi	x2,x2,16
   12c7c:	00008067          	jalr	x0,0(x1)
   12c80:	0501a783          	lw	x15,80(x3) # 14df0 <errno>
   12c84:	fe0784e3          	beq	x15,x0,12c6c <_lseek_r+0x34>
   12c88:	00c12083          	lw	x1,12(x2)
   12c8c:	00f42023          	sw	x15,0(x8)
   12c90:	00812403          	lw	x8,8(x2)
   12c94:	00412483          	lw	x9,4(x2)
   12c98:	01010113          	addi	x2,x2,16
   12c9c:	00008067          	jalr	x0,0(x1)

00012ca0 <__smakebuf_r>:
   12ca0:	00c59783          	lh	x15,12(x11)
   12ca4:	f8010113          	addi	x2,x2,-128
   12ca8:	06812c23          	sw	x8,120(x2)
   12cac:	06112e23          	sw	x1,124(x2)
   12cb0:	06912a23          	sw	x9,116(x2)
   12cb4:	07212823          	sw	x18,112(x2)
   12cb8:	07312623          	sw	x19,108(x2)
   12cbc:	07412423          	sw	x20,104(x2)
   12cc0:	0027f713          	andi	x14,x15,2
   12cc4:	00058413          	addi	x8,x11,0
   12cc8:	02070c63          	beq	x14,x0,12d00 <__smakebuf_r+0x60>
   12ccc:	04358793          	addi	x15,x11,67
   12cd0:	00f5a023          	sw	x15,0(x11)
   12cd4:	00f5a823          	sw	x15,16(x11)
   12cd8:	00100793          	addi	x15,x0,1
   12cdc:	00f5aa23          	sw	x15,20(x11)
   12ce0:	07c12083          	lw	x1,124(x2)
   12ce4:	07812403          	lw	x8,120(x2)
   12ce8:	07412483          	lw	x9,116(x2)
   12cec:	07012903          	lw	x18,112(x2)
   12cf0:	06c12983          	lw	x19,108(x2)
   12cf4:	06812a03          	lw	x20,104(x2)
   12cf8:	08010113          	addi	x2,x2,128
   12cfc:	00008067          	jalr	x0,0(x1)
   12d00:	00e59583          	lh	x11,14(x11)
   12d04:	00050493          	addi	x9,x10,0
   12d08:	0805cc63          	blt	x11,x0,12da0 <__smakebuf_r+0x100>
   12d0c:	00810613          	addi	x12,x2,8
   12d10:	4a8000ef          	jal	x1,131b8 <_fstat_r>
   12d14:	08054463          	blt	x10,x0,12d9c <__smakebuf_r+0xfc>
   12d18:	00c12783          	lw	x15,12(x2)
   12d1c:	0000f937          	lui	x18,0xf
   12d20:	000019b7          	lui	x19,0x1
   12d24:	00f97933          	and	x18,x18,x15
   12d28:	ffffe7b7          	lui	x15,0xffffe
   12d2c:	00f90933          	add	x18,x18,x15
   12d30:	00193913          	sltiu	x18,x18,1
   12d34:	40000a13          	addi	x20,x0,1024
   12d38:	80098993          	addi	x19,x19,-2048 # 800 <exit-0xf894>
   12d3c:	000a0593          	addi	x11,x20,0
   12d40:	00048513          	addi	x10,x9,0
   12d44:	a54fe0ef          	jal	x1,10f98 <_malloc_r>
   12d48:	00c41783          	lh	x15,12(x8)
   12d4c:	06050e63          	beq	x10,x0,12dc8 <__smakebuf_r+0x128>
   12d50:	00010737          	lui	x14,0x10
   12d54:	5c870713          	addi	x14,x14,1480 # 105c8 <_cleanup_r>
   12d58:	02e4ae23          	sw	x14,60(x9)
   12d5c:	0807e793          	ori	x15,x15,128
   12d60:	00f41623          	sh	x15,12(x8)
   12d64:	00a42023          	sw	x10,0(x8)
   12d68:	00a42823          	sw	x10,16(x8)
   12d6c:	01442a23          	sw	x20,20(x8)
   12d70:	08091863          	bne	x18,x0,12e00 <__smakebuf_r+0x160>
   12d74:	0137e7b3          	or	x15,x15,x19
   12d78:	07c12083          	lw	x1,124(x2)
   12d7c:	00f41623          	sh	x15,12(x8)
   12d80:	07812403          	lw	x8,120(x2)
   12d84:	07412483          	lw	x9,116(x2)
   12d88:	07012903          	lw	x18,112(x2)
   12d8c:	06c12983          	lw	x19,108(x2)
   12d90:	06812a03          	lw	x20,104(x2)
   12d94:	08010113          	addi	x2,x2,128
   12d98:	00008067          	jalr	x0,0(x1)
   12d9c:	00c41783          	lh	x15,12(x8)
   12da0:	0807f793          	andi	x15,x15,128
   12da4:	00000913          	addi	x18,x0,0
   12da8:	04078663          	beq	x15,x0,12df4 <__smakebuf_r+0x154>
   12dac:	04000a13          	addi	x20,x0,64
   12db0:	000a0593          	addi	x11,x20,0
   12db4:	00048513          	addi	x10,x9,0
   12db8:	9e0fe0ef          	jal	x1,10f98 <_malloc_r>
   12dbc:	00c41783          	lh	x15,12(x8)
   12dc0:	00000993          	addi	x19,x0,0
   12dc4:	f80516e3          	bne	x10,x0,12d50 <__smakebuf_r+0xb0>
   12dc8:	2007f713          	andi	x14,x15,512
   12dcc:	f0071ae3          	bne	x14,x0,12ce0 <__smakebuf_r+0x40>
   12dd0:	ffc7f793          	andi	x15,x15,-4
   12dd4:	0027e793          	ori	x15,x15,2
   12dd8:	04340713          	addi	x14,x8,67
   12ddc:	00f41623          	sh	x15,12(x8)
   12de0:	00100793          	addi	x15,x0,1
   12de4:	00e42023          	sw	x14,0(x8)
   12de8:	00e42823          	sw	x14,16(x8)
   12dec:	00f42a23          	sw	x15,20(x8)
   12df0:	ef1ff06f          	jal	x0,12ce0 <__smakebuf_r+0x40>
   12df4:	40000a13          	addi	x20,x0,1024
   12df8:	00000993          	addi	x19,x0,0
   12dfc:	f41ff06f          	jal	x0,12d3c <__smakebuf_r+0x9c>
   12e00:	00e41583          	lh	x11,14(x8)
   12e04:	00048513          	addi	x10,x9,0
   12e08:	414000ef          	jal	x1,1321c <_isatty_r>
   12e0c:	00051663          	bne	x10,x0,12e18 <__smakebuf_r+0x178>
   12e10:	00c41783          	lh	x15,12(x8)
   12e14:	f61ff06f          	jal	x0,12d74 <__smakebuf_r+0xd4>
   12e18:	00c45783          	lhu	x15,12(x8)
   12e1c:	ffc7f793          	andi	x15,x15,-4
   12e20:	0017e793          	ori	x15,x15,1
   12e24:	01079793          	slli	x15,x15,0x10
   12e28:	4107d793          	srai	x15,x15,0x10
   12e2c:	f49ff06f          	jal	x0,12d74 <__smakebuf_r+0xd4>

00012e30 <__swhatbuf_r>:
   12e30:	f9010113          	addi	x2,x2,-112
   12e34:	06812423          	sw	x8,104(x2)
   12e38:	00058413          	addi	x8,x11,0
   12e3c:	00e59583          	lh	x11,14(x11)
   12e40:	06912223          	sw	x9,100(x2)
   12e44:	07212023          	sw	x18,96(x2)
   12e48:	06112623          	sw	x1,108(x2)
   12e4c:	00060493          	addi	x9,x12,0
   12e50:	00068913          	addi	x18,x13,0
   12e54:	0405ca63          	blt	x11,x0,12ea8 <__swhatbuf_r+0x78>
   12e58:	00810613          	addi	x12,x2,8
   12e5c:	35c000ef          	jal	x1,131b8 <_fstat_r>
   12e60:	04054463          	blt	x10,x0,12ea8 <__swhatbuf_r+0x78>
   12e64:	00c12703          	lw	x14,12(x2)
   12e68:	0000f7b7          	lui	x15,0xf
   12e6c:	06c12083          	lw	x1,108(x2)
   12e70:	00e7f7b3          	and	x15,x15,x14
   12e74:	ffffe737          	lui	x14,0xffffe
   12e78:	00e787b3          	add	x15,x15,x14
   12e7c:	06812403          	lw	x8,104(x2)
   12e80:	0017b793          	sltiu	x15,x15,1
   12e84:	00f92023          	sw	x15,0(x18) # f000 <exit-0x1094>
   12e88:	40000713          	addi	x14,x0,1024
   12e8c:	00e4a023          	sw	x14,0(x9)
   12e90:	00001537          	lui	x10,0x1
   12e94:	06412483          	lw	x9,100(x2)
   12e98:	06012903          	lw	x18,96(x2)
   12e9c:	80050513          	addi	x10,x10,-2048 # 800 <exit-0xf894>
   12ea0:	07010113          	addi	x2,x2,112
   12ea4:	00008067          	jalr	x0,0(x1)
   12ea8:	00c45783          	lhu	x15,12(x8)
   12eac:	0807f793          	andi	x15,x15,128
   12eb0:	02078863          	beq	x15,x0,12ee0 <__swhatbuf_r+0xb0>
   12eb4:	06c12083          	lw	x1,108(x2)
   12eb8:	06812403          	lw	x8,104(x2)
   12ebc:	00000793          	addi	x15,x0,0
   12ec0:	00f92023          	sw	x15,0(x18)
   12ec4:	04000713          	addi	x14,x0,64
   12ec8:	00e4a023          	sw	x14,0(x9)
   12ecc:	06012903          	lw	x18,96(x2)
   12ed0:	06412483          	lw	x9,100(x2)
   12ed4:	00000513          	addi	x10,x0,0
   12ed8:	07010113          	addi	x2,x2,112
   12edc:	00008067          	jalr	x0,0(x1)
   12ee0:	06c12083          	lw	x1,108(x2)
   12ee4:	06812403          	lw	x8,104(x2)
   12ee8:	00f92023          	sw	x15,0(x18)
   12eec:	40000713          	addi	x14,x0,1024
   12ef0:	00e4a023          	sw	x14,0(x9)
   12ef4:	06012903          	lw	x18,96(x2)
   12ef8:	06412483          	lw	x9,100(x2)
   12efc:	00000513          	addi	x10,x0,0
   12f00:	07010113          	addi	x2,x2,112
   12f04:	00008067          	jalr	x0,0(x1)

00012f08 <_read_r>:
   12f08:	ff010113          	addi	x2,x2,-16
   12f0c:	00058713          	addi	x14,x11,0
   12f10:	00812423          	sw	x8,8(x2)
   12f14:	00912223          	sw	x9,4(x2)
   12f18:	00060593          	addi	x11,x12,0
   12f1c:	00050413          	addi	x8,x10,0
   12f20:	00068613          	addi	x12,x13,0
   12f24:	00070513          	addi	x10,x14,0 # ffffe000 <__BSS_END__+0xfffe91c4>
   12f28:	00112623          	sw	x1,12(x2)
   12f2c:	0401a823          	sw	x0,80(x3) # 14df0 <errno>
   12f30:	4a0000ef          	jal	x1,133d0 <_read>
   12f34:	fff00793          	addi	x15,x0,-1
   12f38:	00f50c63          	beq	x10,x15,12f50 <_read_r+0x48>
   12f3c:	00c12083          	lw	x1,12(x2)
   12f40:	00812403          	lw	x8,8(x2)
   12f44:	00412483          	lw	x9,4(x2)
   12f48:	01010113          	addi	x2,x2,16
   12f4c:	00008067          	jalr	x0,0(x1)
   12f50:	0501a783          	lw	x15,80(x3) # 14df0 <errno>
   12f54:	fe0784e3          	beq	x15,x0,12f3c <_read_r+0x34>
   12f58:	00c12083          	lw	x1,12(x2)
   12f5c:	00f42023          	sw	x15,0(x8)
   12f60:	00812403          	lw	x8,8(x2)
   12f64:	00412483          	lw	x9,4(x2)
   12f68:	01010113          	addi	x2,x2,16
   12f6c:	00008067          	jalr	x0,0(x1)

00012f70 <cleanup_glue>:
   12f70:	fe010113          	addi	x2,x2,-32
   12f74:	01212823          	sw	x18,16(x2)
   12f78:	0005a903          	lw	x18,0(x11)
   12f7c:	00812c23          	sw	x8,24(x2)
   12f80:	00912a23          	sw	x9,20(x2)
   12f84:	00112e23          	sw	x1,28(x2)
   12f88:	01312623          	sw	x19,12(x2)
   12f8c:	01412423          	sw	x20,8(x2)
   12f90:	00058413          	addi	x8,x11,0
   12f94:	00050493          	addi	x9,x10,0
   12f98:	04090263          	beq	x18,x0,12fdc <cleanup_glue+0x6c>
   12f9c:	00092983          	lw	x19,0(x18)
   12fa0:	02098863          	beq	x19,x0,12fd0 <cleanup_glue+0x60>
   12fa4:	0009aa03          	lw	x20,0(x19)
   12fa8:	000a0e63          	beq	x20,x0,12fc4 <cleanup_glue+0x54>
   12fac:	000a2583          	lw	x11,0(x20)
   12fb0:	00058463          	beq	x11,x0,12fb8 <cleanup_glue+0x48>
   12fb4:	fbdff0ef          	jal	x1,12f70 <cleanup_glue>
   12fb8:	000a0593          	addi	x11,x20,0
   12fbc:	00048513          	addi	x10,x9,0
   12fc0:	981ff0ef          	jal	x1,12940 <_free_r>
   12fc4:	00098593          	addi	x11,x19,0
   12fc8:	00048513          	addi	x10,x9,0
   12fcc:	975ff0ef          	jal	x1,12940 <_free_r>
   12fd0:	00090593          	addi	x11,x18,0
   12fd4:	00048513          	addi	x10,x9,0
   12fd8:	969ff0ef          	jal	x1,12940 <_free_r>
   12fdc:	00040593          	addi	x11,x8,0
   12fe0:	01812403          	lw	x8,24(x2)
   12fe4:	01c12083          	lw	x1,28(x2)
   12fe8:	01012903          	lw	x18,16(x2)
   12fec:	00c12983          	lw	x19,12(x2)
   12ff0:	00812a03          	lw	x20,8(x2)
   12ff4:	00048513          	addi	x10,x9,0
   12ff8:	01412483          	lw	x9,20(x2)
   12ffc:	02010113          	addi	x2,x2,32
   13000:	941ff06f          	jal	x0,12940 <_free_r>

00013004 <_reclaim_reent>:
   13004:	0381a783          	lw	x15,56(x3) # 14dd8 <_impure_ptr>
   13008:	10a78a63          	beq	x15,x10,1311c <_reclaim_reent+0x118>
   1300c:	04c52583          	lw	x11,76(x10)
   13010:	fe010113          	addi	x2,x2,-32
   13014:	00912a23          	sw	x9,20(x2)
   13018:	00112e23          	sw	x1,28(x2)
   1301c:	00812c23          	sw	x8,24(x2)
   13020:	01212823          	sw	x18,16(x2)
   13024:	01312623          	sw	x19,12(x2)
   13028:	00050493          	addi	x9,x10,0
   1302c:	04058063          	beq	x11,x0,1306c <_reclaim_reent+0x68>
   13030:	00000913          	addi	x18,x0,0
   13034:	08000993          	addi	x19,x0,128
   13038:	012587b3          	add	x15,x11,x18
   1303c:	0007a403          	lw	x8,0(x15) # f000 <exit-0x1094>
   13040:	00040e63          	beq	x8,x0,1305c <_reclaim_reent+0x58>
   13044:	00040593          	addi	x11,x8,0
   13048:	00042403          	lw	x8,0(x8)
   1304c:	00048513          	addi	x10,x9,0
   13050:	8f1ff0ef          	jal	x1,12940 <_free_r>
   13054:	fe0418e3          	bne	x8,x0,13044 <_reclaim_reent+0x40>
   13058:	04c4a583          	lw	x11,76(x9)
   1305c:	00490913          	addi	x18,x18,4
   13060:	fd391ce3          	bne	x18,x19,13038 <_reclaim_reent+0x34>
   13064:	00048513          	addi	x10,x9,0
   13068:	8d9ff0ef          	jal	x1,12940 <_free_r>
   1306c:	0404a583          	lw	x11,64(x9)
   13070:	00058663          	beq	x11,x0,1307c <_reclaim_reent+0x78>
   13074:	00048513          	addi	x10,x9,0
   13078:	8c9ff0ef          	jal	x1,12940 <_free_r>
   1307c:	1484a403          	lw	x8,328(x9)
   13080:	02040063          	beq	x8,x0,130a0 <_reclaim_reent+0x9c>
   13084:	14c48913          	addi	x18,x9,332
   13088:	01240c63          	beq	x8,x18,130a0 <_reclaim_reent+0x9c>
   1308c:	00040593          	addi	x11,x8,0
   13090:	00042403          	lw	x8,0(x8)
   13094:	00048513          	addi	x10,x9,0
   13098:	8a9ff0ef          	jal	x1,12940 <_free_r>
   1309c:	fe8918e3          	bne	x18,x8,1308c <_reclaim_reent+0x88>
   130a0:	0544a583          	lw	x11,84(x9)
   130a4:	00058663          	beq	x11,x0,130b0 <_reclaim_reent+0xac>
   130a8:	00048513          	addi	x10,x9,0
   130ac:	895ff0ef          	jal	x1,12940 <_free_r>
   130b0:	0384a783          	lw	x15,56(x9)
   130b4:	04078663          	beq	x15,x0,13100 <_reclaim_reent+0xfc>
   130b8:	03c4a783          	lw	x15,60(x9)
   130bc:	00048513          	addi	x10,x9,0
   130c0:	000780e7          	jalr	x1,0(x15)
   130c4:	2e04a403          	lw	x8,736(x9)
   130c8:	02040c63          	beq	x8,x0,13100 <_reclaim_reent+0xfc>
   130cc:	00042583          	lw	x11,0(x8)
   130d0:	00058663          	beq	x11,x0,130dc <_reclaim_reent+0xd8>
   130d4:	00048513          	addi	x10,x9,0
   130d8:	e99ff0ef          	jal	x1,12f70 <cleanup_glue>
   130dc:	00040593          	addi	x11,x8,0
   130e0:	01812403          	lw	x8,24(x2)
   130e4:	01c12083          	lw	x1,28(x2)
   130e8:	01012903          	lw	x18,16(x2)
   130ec:	00c12983          	lw	x19,12(x2)
   130f0:	00048513          	addi	x10,x9,0
   130f4:	01412483          	lw	x9,20(x2)
   130f8:	02010113          	addi	x2,x2,32
   130fc:	845ff06f          	jal	x0,12940 <_free_r>
   13100:	01c12083          	lw	x1,28(x2)
   13104:	01812403          	lw	x8,24(x2)
   13108:	01412483          	lw	x9,20(x2)
   1310c:	01012903          	lw	x18,16(x2)
   13110:	00c12983          	lw	x19,12(x2)
   13114:	02010113          	addi	x2,x2,32
   13118:	00008067          	jalr	x0,0(x1)
   1311c:	00008067          	jalr	x0,0(x1)

00013120 <__register_exitproc>:
   13120:	0301a703          	lw	x14,48(x3) # 14dd0 <_global_impure_ptr>
   13124:	14872783          	lw	x15,328(x14)
   13128:	04078c63          	beq	x15,x0,13180 <__register_exitproc+0x60>
   1312c:	0047a703          	lw	x14,4(x15)
   13130:	01f00813          	addi	x16,x0,31
   13134:	06e84e63          	blt	x16,x14,131b0 <__register_exitproc+0x90>
   13138:	00271813          	slli	x16,x14,0x2
   1313c:	02050663          	beq	x10,x0,13168 <__register_exitproc+0x48>
   13140:	01078333          	add	x6,x15,x16
   13144:	08c32423          	sw	x12,136(x6)
   13148:	1887a883          	lw	x17,392(x15)
   1314c:	00100613          	addi	x12,x0,1
   13150:	00e61633          	sll	x12,x12,x14
   13154:	00c8e8b3          	or	x17,x17,x12
   13158:	1917a423          	sw	x17,392(x15)
   1315c:	10d32423          	sw	x13,264(x6)
   13160:	00200693          	addi	x13,x0,2
   13164:	02d50463          	beq	x10,x13,1318c <__register_exitproc+0x6c>
   13168:	00170713          	addi	x14,x14,1
   1316c:	00e7a223          	sw	x14,4(x15)
   13170:	010787b3          	add	x15,x15,x16
   13174:	00b7a423          	sw	x11,8(x15)
   13178:	00000513          	addi	x10,x0,0
   1317c:	00008067          	jalr	x0,0(x1)
   13180:	14c70793          	addi	x15,x14,332
   13184:	14f72423          	sw	x15,328(x14)
   13188:	fa5ff06f          	jal	x0,1312c <__register_exitproc+0xc>
   1318c:	18c7a683          	lw	x13,396(x15)
   13190:	00170713          	addi	x14,x14,1
   13194:	00e7a223          	sw	x14,4(x15)
   13198:	00c6e6b3          	or	x13,x13,x12
   1319c:	18d7a623          	sw	x13,396(x15)
   131a0:	010787b3          	add	x15,x15,x16
   131a4:	00b7a423          	sw	x11,8(x15)
   131a8:	00000513          	addi	x10,x0,0
   131ac:	00008067          	jalr	x0,0(x1)
   131b0:	fff00513          	addi	x10,x0,-1
   131b4:	00008067          	jalr	x0,0(x1)

000131b8 <_fstat_r>:
   131b8:	ff010113          	addi	x2,x2,-16
   131bc:	00058713          	addi	x14,x11,0
   131c0:	00812423          	sw	x8,8(x2)
   131c4:	00912223          	sw	x9,4(x2)
   131c8:	00050413          	addi	x8,x10,0
   131cc:	00060593          	addi	x11,x12,0
   131d0:	00070513          	addi	x10,x14,0
   131d4:	00112623          	sw	x1,12(x2)
   131d8:	0401a823          	sw	x0,80(x3) # 14df0 <errno>
   131dc:	110000ef          	jal	x1,132ec <_fstat>
   131e0:	fff00793          	addi	x15,x0,-1
   131e4:	00f50c63          	beq	x10,x15,131fc <_fstat_r+0x44>
   131e8:	00c12083          	lw	x1,12(x2)
   131ec:	00812403          	lw	x8,8(x2)
   131f0:	00412483          	lw	x9,4(x2)
   131f4:	01010113          	addi	x2,x2,16
   131f8:	00008067          	jalr	x0,0(x1)
   131fc:	0501a783          	lw	x15,80(x3) # 14df0 <errno>
   13200:	fe0784e3          	beq	x15,x0,131e8 <_fstat_r+0x30>
   13204:	00c12083          	lw	x1,12(x2)
   13208:	00f42023          	sw	x15,0(x8)
   1320c:	00812403          	lw	x8,8(x2)
   13210:	00412483          	lw	x9,4(x2)
   13214:	01010113          	addi	x2,x2,16
   13218:	00008067          	jalr	x0,0(x1)

0001321c <_isatty_r>:
   1321c:	ff010113          	addi	x2,x2,-16
   13220:	00812423          	sw	x8,8(x2)
   13224:	00912223          	sw	x9,4(x2)
   13228:	00050413          	addi	x8,x10,0
   1322c:	00058513          	addi	x10,x11,0
   13230:	00112623          	sw	x1,12(x2)
   13234:	0401a823          	sw	x0,80(x3) # 14df0 <errno>
   13238:	114000ef          	jal	x1,1334c <_isatty>
   1323c:	fff00793          	addi	x15,x0,-1
   13240:	00f50c63          	beq	x10,x15,13258 <_isatty_r+0x3c>
   13244:	00c12083          	lw	x1,12(x2)
   13248:	00812403          	lw	x8,8(x2)
   1324c:	00412483          	lw	x9,4(x2)
   13250:	01010113          	addi	x2,x2,16
   13254:	00008067          	jalr	x0,0(x1)
   13258:	0501a783          	lw	x15,80(x3) # 14df0 <errno>
   1325c:	fe0784e3          	beq	x15,x0,13244 <_isatty_r+0x28>
   13260:	00c12083          	lw	x1,12(x2)
   13264:	00f42023          	sw	x15,0(x8)
   13268:	00812403          	lw	x8,8(x2)
   1326c:	00412483          	lw	x9,4(x2)
   13270:	01010113          	addi	x2,x2,16
   13274:	00008067          	jalr	x0,0(x1)

00013278 <_close>:
   13278:	ff010113          	addi	x2,x2,-16
   1327c:	00112623          	sw	x1,12(x2)
   13280:	00812423          	sw	x8,8(x2)
   13284:	03900893          	addi	x17,x0,57
   13288:	00000073          	ecall
   1328c:	00050413          	addi	x8,x10,0
   13290:	00054c63          	blt	x10,x0,132a8 <_close+0x30>
   13294:	00c12083          	lw	x1,12(x2)
   13298:	00040513          	addi	x10,x8,0
   1329c:	00812403          	lw	x8,8(x2)
   132a0:	01010113          	addi	x2,x2,16
   132a4:	00008067          	jalr	x0,0(x1)
   132a8:	40800433          	sub	x8,x0,x8
   132ac:	2cc000ef          	jal	x1,13578 <__errno>
   132b0:	00852023          	sw	x8,0(x10)
   132b4:	fff00413          	addi	x8,x0,-1
   132b8:	fddff06f          	jal	x0,13294 <_close+0x1c>

000132bc <_exit>:
   132bc:	05d00893          	addi	x17,x0,93
   132c0:	00000073          	ecall
   132c4:	00054463          	blt	x10,x0,132cc <_exit+0x10>
   132c8:	0000006f          	jal	x0,132c8 <_exit+0xc>
   132cc:	ff010113          	addi	x2,x2,-16
   132d0:	00812423          	sw	x8,8(x2)
   132d4:	00050413          	addi	x8,x10,0
   132d8:	00112623          	sw	x1,12(x2)
   132dc:	40800433          	sub	x8,x0,x8
   132e0:	298000ef          	jal	x1,13578 <__errno>
   132e4:	00852023          	sw	x8,0(x10)
   132e8:	0000006f          	jal	x0,132e8 <_exit+0x2c>

000132ec <_fstat>:
   132ec:	f7010113          	addi	x2,x2,-144
   132f0:	08912223          	sw	x9,132(x2)
   132f4:	08112623          	sw	x1,140(x2)
   132f8:	00058493          	addi	x9,x11,0
   132fc:	08812423          	sw	x8,136(x2)
   13300:	05000893          	addi	x17,x0,80
   13304:	00010593          	addi	x11,x2,0
   13308:	00000073          	ecall
   1330c:	00050413          	addi	x8,x10,0
   13310:	02054463          	blt	x10,x0,13338 <_fstat+0x4c>
   13314:	00048513          	addi	x10,x9,0
   13318:	00010593          	addi	x11,x2,0
   1331c:	1b4000ef          	jal	x1,134d0 <_conv_stat>
   13320:	08c12083          	lw	x1,140(x2)
   13324:	00040513          	addi	x10,x8,0
   13328:	08812403          	lw	x8,136(x2)
   1332c:	08412483          	lw	x9,132(x2)
   13330:	09010113          	addi	x2,x2,144
   13334:	00008067          	jalr	x0,0(x1)
   13338:	40800433          	sub	x8,x0,x8
   1333c:	23c000ef          	jal	x1,13578 <__errno>
   13340:	00852023          	sw	x8,0(x10)
   13344:	fff00413          	addi	x8,x0,-1
   13348:	fcdff06f          	jal	x0,13314 <_fstat+0x28>

0001334c <_isatty>:
   1334c:	f9010113          	addi	x2,x2,-112
   13350:	00810593          	addi	x11,x2,8
   13354:	06112623          	sw	x1,108(x2)
   13358:	f95ff0ef          	jal	x1,132ec <_fstat>
   1335c:	fff00793          	addi	x15,x0,-1
   13360:	00f50e63          	beq	x10,x15,1337c <_isatty+0x30>
   13364:	00c12503          	lw	x10,12(x2)
   13368:	06c12083          	lw	x1,108(x2)
   1336c:	00d55513          	srli	x10,x10,0xd
   13370:	00157513          	andi	x10,x10,1
   13374:	07010113          	addi	x2,x2,112
   13378:	00008067          	jalr	x0,0(x1)
   1337c:	06c12083          	lw	x1,108(x2)
   13380:	00000513          	addi	x10,x0,0
   13384:	07010113          	addi	x2,x2,112
   13388:	00008067          	jalr	x0,0(x1)

0001338c <_lseek>:
   1338c:	ff010113          	addi	x2,x2,-16
   13390:	00112623          	sw	x1,12(x2)
   13394:	00812423          	sw	x8,8(x2)
   13398:	03e00893          	addi	x17,x0,62
   1339c:	00000073          	ecall
   133a0:	00050413          	addi	x8,x10,0
   133a4:	00054c63          	blt	x10,x0,133bc <_lseek+0x30>
   133a8:	00c12083          	lw	x1,12(x2)
   133ac:	00040513          	addi	x10,x8,0
   133b0:	00812403          	lw	x8,8(x2)
   133b4:	01010113          	addi	x2,x2,16
   133b8:	00008067          	jalr	x0,0(x1)
   133bc:	40800433          	sub	x8,x0,x8
   133c0:	1b8000ef          	jal	x1,13578 <__errno>
   133c4:	00852023          	sw	x8,0(x10)
   133c8:	fff00413          	addi	x8,x0,-1
   133cc:	fddff06f          	jal	x0,133a8 <_lseek+0x1c>

000133d0 <_read>:
   133d0:	ff010113          	addi	x2,x2,-16
   133d4:	00112623          	sw	x1,12(x2)
   133d8:	00812423          	sw	x8,8(x2)
   133dc:	03f00893          	addi	x17,x0,63
   133e0:	00000073          	ecall
   133e4:	00050413          	addi	x8,x10,0
   133e8:	00054c63          	blt	x10,x0,13400 <_read+0x30>
   133ec:	00c12083          	lw	x1,12(x2)
   133f0:	00040513          	addi	x10,x8,0
   133f4:	00812403          	lw	x8,8(x2)
   133f8:	01010113          	addi	x2,x2,16
   133fc:	00008067          	jalr	x0,0(x1)
   13400:	40800433          	sub	x8,x0,x8
   13404:	174000ef          	jal	x1,13578 <__errno>
   13408:	00852023          	sw	x8,0(x10)
   1340c:	fff00413          	addi	x8,x0,-1
   13410:	fddff06f          	jal	x0,133ec <_read+0x1c>

00013414 <_sbrk>:
   13414:	0541a703          	lw	x14,84(x3) # 14df4 <heap_end.0>
   13418:	ff010113          	addi	x2,x2,-16
   1341c:	00112623          	sw	x1,12(x2)
   13420:	00050793          	addi	x15,x10,0
   13424:	02071063          	bne	x14,x0,13444 <_sbrk+0x30>
   13428:	0d600893          	addi	x17,x0,214
   1342c:	00000513          	addi	x10,x0,0
   13430:	00000073          	ecall
   13434:	fff00613          	addi	x12,x0,-1
   13438:	00050713          	addi	x14,x10,0
   1343c:	02c50a63          	beq	x10,x12,13470 <_sbrk+0x5c>
   13440:	04a1aa23          	sw	x10,84(x3) # 14df4 <heap_end.0>
   13444:	0d600893          	addi	x17,x0,214
   13448:	00e78533          	add	x10,x15,x14
   1344c:	00000073          	ecall
   13450:	0541a703          	lw	x14,84(x3) # 14df4 <heap_end.0>
   13454:	00e787b3          	add	x15,x15,x14
   13458:	00f51c63          	bne	x10,x15,13470 <_sbrk+0x5c>
   1345c:	00c12083          	lw	x1,12(x2)
   13460:	04a1aa23          	sw	x10,84(x3) # 14df4 <heap_end.0>
   13464:	00070513          	addi	x10,x14,0
   13468:	01010113          	addi	x2,x2,16
   1346c:	00008067          	jalr	x0,0(x1)
   13470:	108000ef          	jal	x1,13578 <__errno>
   13474:	00c12083          	lw	x1,12(x2)
   13478:	00c00793          	addi	x15,x0,12
   1347c:	00f52023          	sw	x15,0(x10)
   13480:	fff00513          	addi	x10,x0,-1
   13484:	01010113          	addi	x2,x2,16
   13488:	00008067          	jalr	x0,0(x1)

0001348c <_write>:
   1348c:	ff010113          	addi	x2,x2,-16
   13490:	00112623          	sw	x1,12(x2)
   13494:	00812423          	sw	x8,8(x2)
   13498:	04000893          	addi	x17,x0,64
   1349c:	00000073          	ecall
   134a0:	00050413          	addi	x8,x10,0
   134a4:	00054c63          	blt	x10,x0,134bc <_write+0x30>
   134a8:	00c12083          	lw	x1,12(x2)
   134ac:	00040513          	addi	x10,x8,0
   134b0:	00812403          	lw	x8,8(x2)
   134b4:	01010113          	addi	x2,x2,16
   134b8:	00008067          	jalr	x0,0(x1)
   134bc:	40800433          	sub	x8,x0,x8
   134c0:	0b8000ef          	jal	x1,13578 <__errno>
   134c4:	00852023          	sw	x8,0(x10)
   134c8:	fff00413          	addi	x8,x0,-1
   134cc:	fddff06f          	jal	x0,134a8 <_write+0x1c>

000134d0 <_conv_stat>:
   134d0:	0185d703          	lhu	x14,24(x11)
   134d4:	0145d783          	lhu	x15,20(x11)
   134d8:	ff010113          	addi	x2,x2,-16
   134dc:	01c5a283          	lw	x5,28(x11)
   134e0:	0205af83          	lw	x31,32(x11)
   134e4:	0305af03          	lw	x30,48(x11)
   134e8:	0405ae83          	lw	x29,64(x11)
   134ec:	0385ae03          	lw	x28,56(x11)
   134f0:	0485a303          	lw	x6,72(x11)
   134f4:	04c5a383          	lw	x7,76(x11)
   134f8:	0585a803          	lw	x16,88(x11)
   134fc:	05c5a883          	lw	x17,92(x11)
   13500:	00812623          	sw	x8,12(x2)
   13504:	00912423          	sw	x9,8(x2)
   13508:	0105a403          	lw	x8,16(x11)
   1350c:	0085a483          	lw	x9,8(x11)
   13510:	01212223          	sw	x18,4(x2)
   13514:	0005a903          	lw	x18,0(x11)
   13518:	0685a603          	lw	x12,104(x11)
   1351c:	01071713          	slli	x14,x14,0x10
   13520:	00e7e7b3          	or	x15,x15,x14
   13524:	06c5a683          	lw	x13,108(x11)
   13528:	01251023          	sh	x18,0(x10)
   1352c:	00951123          	sh	x9,2(x10)
   13530:	00852223          	sw	x8,4(x10)
   13534:	00f52423          	sw	x15,8(x10)
   13538:	00551623          	sh	x5,12(x10)
   1353c:	01f51723          	sh	x31,14(x10)
   13540:	01e52823          	sw	x30,16(x10)
   13544:	05d52623          	sw	x29,76(x10)
   13548:	05c52423          	sw	x28,72(x10)
   1354c:	00652c23          	sw	x6,24(x10)
   13550:	00752e23          	sw	x7,28(x10)
   13554:	03052423          	sw	x16,40(x10)
   13558:	03152623          	sw	x17,44(x10)
   1355c:	02c52c23          	sw	x12,56(x10)
   13560:	00c12403          	lw	x8,12(x2)
   13564:	02d52e23          	sw	x13,60(x10)
   13568:	00812483          	lw	x9,8(x2)
   1356c:	00412903          	lw	x18,4(x2)
   13570:	01010113          	addi	x2,x2,16
   13574:	00008067          	jalr	x0,0(x1)

00013578 <__errno>:
   13578:	0381a503          	lw	x10,56(x3) # 14dd8 <_impure_ptr>
   1357c:	00008067          	jalr	x0,0(x1)
